---
triple:          'arm64-apple-darwin'
binary-path:     '/Users/cadechaplin/OldFiles/WSU/Random projects/hashmapTree/main'
relocations:
  - { offsetInCU: 0x5F77, offset: 0x5F77, size: 0x8, addend: 0x0, symName: __ZNSt3__19__shuffleB7v160006INS_17_ClassicAlgPolicyENS_11__wrap_iterIPiEES4_RNS_23mersenne_twister_engineIjLm32ELm624ELm397ELm31ELj2567483615ELm11ELj4294967295ELm7ELj2636928640ELm15ELj4022730752ELm18ELj1812433253EEEEET0_S8_T1_OT2_, symObjAddr: 0x54D4, symBinAddr: 0x100008C88, symSize: 0x148 }
  - { offsetInCU: 0x6632, offset: 0x6632, size: 0x8, addend: 0x0, symName: __ZNSt3__16chronomiB7v160006IxNS_5ratioILl1ELl1000000000EEExS3_EENS_11common_typeIJNS0_8durationIT_T0_EENS5_IT1_T2_EEEE4typeERKS8_RKSB_, symObjAddr: 0x6AA0, symBinAddr: 0x10000A254, symSize: 0x70 }
  - { offsetInCU: 0x6ABC, offset: 0x6ABC, size: 0x8, addend: 0x0, symName: __ZNSt3__16chrono13duration_castB7v160006INS0_8durationIxNS_5ratioILl1ELl1000000EEEEExNS3_ILl1ELl1000000000EEEEENS_9enable_ifIXsr13__is_durationIT_EE5valueES8_E4typeERKNS2_IT0_T1_EE, symObjAddr: 0xAB8, symBinAddr: 0x10000426C, symSize: 0x30 }
  - { offsetInCU: 0x6B03, offset: 0x6B03, size: 0x8, addend: 0x0, symName: __ZNSt3__16chronomiB7v160006INS0_12steady_clockENS0_8durationIxNS_5ratioILl1ELl1000000000EEEEES6_EENS_11common_typeIJT0_T1_EE4typeERKNS0_10time_pointIT_S8_EERKNSC_ISD_S9_EE, symObjAddr: 0xAE8, symBinAddr: 0x10000429C, symSize: 0x58 }
  - { offsetInCU: 0x6B58, offset: 0x6B58, size: 0x8, addend: 0x0, symName: __ZNSt3__16chrono13duration_castB7v160006INS0_8durationIxNS_5ratioILl1ELl1000000000EEEEExS4_EENS_9enable_ifIXsr13__is_durationIT_EE5valueES7_E4typeERKNS2_IT0_T1_EE, symObjAddr: 0xEC4, symBinAddr: 0x100004678, symSize: 0x30 }
  - { offsetInCU: 0x6EA5, offset: 0x6EA5, size: 0x8, addend: 0x0, symName: __ZNSt3__124__put_character_sequenceB7v160006IcNS_11char_traitsIcEEEERNS_13basic_ostreamIT_T0_EES7_PKS4_m, symObjAddr: 0x6C40, symBinAddr: 0x10000A3F4, symSize: 0x1F4 }
  - { offsetInCU: 0x9334, offset: 0x9334, size: 0x8, addend: 0x0, symName: __ZNSt3__17shuffleB7v160006INS_11__wrap_iterIPiEERNS_23mersenne_twister_engineIjLm32ELm624ELm397ELm31ELj2567483615ELm11ELj4294967295ELm7ELj2636928640ELm15ELj4022730752ELm18ELj1812433253EEEEEvT_S7_OT0_, symObjAddr: 0x928, symBinAddr: 0x1000040DC, symSize: 0x48 }
  - { offsetInCU: 0x938A, offset: 0x938A, size: 0x8, addend: 0x0, symName: __ZNSt3__1lsB7v160006INS_11char_traitsIcEEEERNS_13basic_ostreamIcT_EES6_PKc, symObjAddr: 0xB40, symBinAddr: 0x1000042F4, symSize: 0x48 }
  - { offsetInCU: 0x93D0, offset: 0x93D0, size: 0x8, addend: 0x0, symName: __ZNSt3__14endlB7v160006IcNS_11char_traitsIcEEEERNS_13basic_ostreamIT_T0_EES7_, symObjAddr: 0xBCC, symBinAddr: 0x100004380, symSize: 0x58 }
  - { offsetInCU: 0x9410, offset: 0x9410, size: 0x8, addend: 0x0, symName: __ZNSt3__119__debug_db_insert_cB7v160006INS_6vectorIP4NodeIiENS_9allocatorIS4_EEEEEEvPT_, symObjAddr: 0x13F4, symBinAddr: 0x100004BA8, symSize: 0x10 }
  - { offsetInCU: 0x9441, offset: 0x9441, size: 0x8, addend: 0x0, symName: __ZNSt3__112__to_addressB7v160006IP4NodeIiEEEPT_S5_, symObjAddr: 0x1B90, symBinAddr: 0x100005344, symSize: 0x14 }
  - { offsetInCU: 0x9476, offset: 0x9476, size: 0x8, addend: 0x0, symName: __ZNSt3__13maxB7v160006ImEERKT_S3_S3_, symObjAddr: 0x1D58, symBinAddr: 0x10000550C, symSize: 0x2C }
  - { offsetInCU: 0x94B9, offset: 0x94B9, size: 0x8, addend: 0x0, symName: __ZNSt3__13minB7v160006ImEERKT_S3_S3_, symObjAddr: 0x1D84, symBinAddr: 0x100005538, symSize: 0x2C }
  - { offsetInCU: 0x96FD, offset: 0x96FD, size: 0x8, addend: 0x0, symName: __ZNSt3__13minB7v160006ImNS_6__lessImmEEEERKT_S5_S5_T0_, symObjAddr: 0x1E10, symBinAddr: 0x1000055C4, symSize: 0x54 }
  - { offsetInCU: 0x9792, offset: 0x9792, size: 0x8, addend: 0x0, symName: __ZNSt3__120__throw_length_errorB7v160006EPKc, symObjAddr: 0x1EEC, symBinAddr: 0x1000056A0, symSize: 0x64 }
  - { offsetInCU: 0x97BA, offset: 0x97BA, size: 0x8, addend: 0x0, symName: __ZNSt3__13maxB7v160006ImNS_6__lessImmEEEERKT_S5_S5_T0_, symObjAddr: 0x2030, symBinAddr: 0x1000057E4, symSize: 0x54 }
  - { offsetInCU: 0x9814, offset: 0x9814, size: 0x8, addend: 0x0, symName: __ZNSt3__119__allocate_at_leastB7v160006INS_9allocatorIP4NodeIiEEEEENS_19__allocation_resultINS_16allocator_traitsIT_E7pointerEEERS8_m, symObjAddr: 0x2194, symBinAddr: 0x100005948, symSize: 0x40 }
  - { offsetInCU: 0x9857, offset: 0x9857, size: 0x8, addend: 0x0, symName: __ZNSt3__130__libcpp_is_constant_evaluatedB7v160006Ev, symObjAddr: 0x2344, symBinAddr: 0x100005AF8, symSize: 0xC }
  - { offsetInCU: 0x9874, offset: 0x9874, size: 0x8, addend: 0x0, symName: __ZNSt3__117__libcpp_allocateB7v160006Emm, symObjAddr: 0x2350, symBinAddr: 0x100005B04, symSize: 0x28 }
  - { offsetInCU: 0x98B1, offset: 0x98B1, size: 0x8, addend: 0x0, symName: __ZNSt3__121__libcpp_operator_newB7v160006IJmEEEPvDpT_, symObjAddr: 0x2378, symBinAddr: 0x100005B2C, symSize: 0x24 }
  - { offsetInCU: 0x98EA, offset: 0x98EA, size: 0x8, addend: 0x0, symName: __ZNSt3__142__uninitialized_allocator_move_if_noexceptB7v160006INS_9allocatorIP4NodeIiEEENS_16reverse_iteratorIPS4_EES8_S4_vEET1_RT_T0_SC_S9_, symObjAddr: 0x2584, symBinAddr: 0x100005D38, symSize: 0xE8 }
  - { offsetInCU: 0x9967, offset: 0x9967, size: 0x8, addend: 0x0, symName: __ZNSt3__14swapB7v160006IPP4NodeIiEEEvRT_S6_, symObjAddr: 0x26B8, symBinAddr: 0x100005E6C, symSize: 0x3C }
  - { offsetInCU: 0x99B8, offset: 0x99B8, size: 0x8, addend: 0x0, symName: __ZNSt3__125__debug_db_invalidate_allB7v160006INS_6vectorIP4NodeIiENS_9allocatorIS4_EEEEEEvPT_, symObjAddr: 0x27A0, symBinAddr: 0x100005F54, symSize: 0x10 }
  - { offsetInCU: 0x99E9, offset: 0x99E9, size: 0x8, addend: 0x0, symName: __ZNSt3__1neB7v160006IPP4NodeIiES4_EEbRKNS_16reverse_iteratorIT_EERKNS5_IT0_EE, symObjAddr: 0x27F8, symBinAddr: 0x100005FAC, symSize: 0x48 }
  - { offsetInCU: 0x9A5A, offset: 0x9A5A, size: 0x8, addend: 0x0, symName: __ZNSt3__114__construct_atB7v160006IP4NodeIiEJS3_EPS3_EEPT_S6_DpOT0_, symObjAddr: 0x2840, symBinAddr: 0x100005FF4, symSize: 0x2C }
  - { offsetInCU: 0x9ACA, offset: 0x9ACA, size: 0x8, addend: 0x0, symName: __ZNSt3__112__to_addressB7v160006INS_16reverse_iteratorIPP4NodeIiEEEvEENS_5decayIDTclsr19__to_address_helperIT_EE6__callclsr3stdE7declvalIRKS8_EEEEE4typeESA_, symObjAddr: 0x286C, symBinAddr: 0x100006020, symSize: 0x24 }
  - { offsetInCU: 0x9B00, offset: 0x9B00, size: 0x8, addend: 0x0, symName: __ZNSt3__14moveB7v160006INS_16reverse_iteratorIPP4NodeIiEEES6_EET0_T_S8_S7_, symObjAddr: 0x28D8, symBinAddr: 0x10000608C, symSize: 0x78 }
  - { offsetInCU: 0x9B83, offset: 0x9B83, size: 0x8, addend: 0x0, symName: __ZNSt3__16__moveB7v160006INS_17_ClassicAlgPolicyENS_16reverse_iteratorIPP4NodeIiEEES7_S7_EENS_4pairIT0_T2_EES9_T1_SA_, symObjAddr: 0x29C0, symBinAddr: 0x100006174, symSize: 0x64 }
  - { offsetInCU: 0x9BEF, offset: 0x9BEF, size: 0x8, addend: 0x0, symName: __ZNSt3__123__dispatch_copy_or_moveB7v160006INS_17_ClassicAlgPolicyENS_11__move_loopIS1_EENS_14__move_trivialENS_16reverse_iteratorIPP4NodeIiEEESA_SA_EENS_4pairIT2_T4_EESC_T3_SD_, symObjAddr: 0x2A24, symBinAddr: 0x1000061D8, symSize: 0x7C }
  - { offsetInCU: 0x9C6D, offset: 0x9C6D, size: 0x8, addend: 0x0, symName: __ZNSt3__121__unwrap_and_dispatchB7v160006INS_10__overloadINS_11__move_loopINS_17_ClassicAlgPolicyEEENS_14__move_trivialEEENS_16reverse_iteratorIPP4NodeIiEEESC_SC_Li0EEENS_4pairIT0_T2_EESE_T1_SF_, symObjAddr: 0x2AA0, symBinAddr: 0x100006254, symSize: 0x12C }
  - { offsetInCU: 0x9CFD, offset: 0x9CFD, size: 0x8, addend: 0x0, symName: __ZNSt3__114__unwrap_rangeB7v160006INS_16reverse_iteratorIPP4NodeIiEEES6_EENS_4pairIT0_S8_EET_SA_, symObjAddr: 0x2BCC, symBinAddr: 0x100006380, symSize: 0x84 }
  - { offsetInCU: 0x9E90, offset: 0x9E90, size: 0x8, addend: 0x0, symName: __ZNSt3__113__unwrap_iterB7v160006INS_16reverse_iteratorIPP4NodeIiEEENS_18__unwrap_iter_implIS6_Lb0EEELi0EEEDTclsrT0_8__unwrapclsr3stdE7declvalIT_EEEESA_, symObjAddr: 0x2CF0, symBinAddr: 0x1000064A4, symSize: 0x44 }
  - { offsetInCU: 0x9ED4, offset: 0x9ED4, size: 0x8, addend: 0x0, symName: __ZNSt3__19make_pairB7v160006INS_16reverse_iteratorIPP4NodeIiEEES6_EENS_4pairINS_18__unwrap_ref_decayIT_E4typeENS8_IT0_E4typeEEEOS9_OSC_, symObjAddr: 0x2D34, symBinAddr: 0x1000064E8, symSize: 0x38 }
  - { offsetInCU: 0x9F23, offset: 0x9F23, size: 0x8, addend: 0x0, symName: __ZNSt3__114__rewrap_rangeB7v160006INS_16reverse_iteratorIPP4NodeIiEEES6_EET_S7_T0_, symObjAddr: 0x2D6C, symBinAddr: 0x100006520, symSize: 0x5C }
  - { offsetInCU: 0x9F6F, offset: 0x9F6F, size: 0x8, addend: 0x0, symName: __ZNSt3__113__rewrap_iterB7v160006INS_16reverse_iteratorIPP4NodeIiEEES6_NS_18__unwrap_iter_implIS6_Lb0EEEEET_S9_T0_, symObjAddr: 0x2DC8, symBinAddr: 0x10000657C, symSize: 0x88 }
  - { offsetInCU: 0xA0F4, offset: 0xA0F4, size: 0x8, addend: 0x0, symName: __ZNSt3__119__libcpp_deallocateB7v160006EPvmm, symObjAddr: 0x31F0, symBinAddr: 0x1000069A4, symSize: 0x30 }
  - { offsetInCU: 0xA13C, offset: 0xA13C, size: 0x8, addend: 0x0, symName: __ZNSt3__127__do_deallocate_handle_sizeB7v160006IJEEEvPvmDpT_, symObjAddr: 0x3220, symBinAddr: 0x1000069D4, symSize: 0x28 }
  - { offsetInCU: 0xA17A, offset: 0xA17A, size: 0x8, addend: 0x0, symName: __ZNSt3__124__libcpp_operator_deleteB7v160006IJPvEEEvDpT_, symObjAddr: 0x3248, symBinAddr: 0x1000069FC, symSize: 0x24 }
  - { offsetInCU: 0xA1AF, offset: 0xA1AF, size: 0x8, addend: 0x0, symName: __ZNSt3__118__debug_db_erase_cB7v160006INS_6vectorIP4NodeIiENS_9allocatorIS4_EEEEEEvPT_, symObjAddr: 0x354C, symBinAddr: 0x100006D00, symSize: 0x10 }
  - { offsetInCU: 0xA1E0, offset: 0xA1E0, size: 0x8, addend: 0x0, symName: __ZNSt3__119__debug_db_insert_cB7v160006INS_6vectorIiNS_9allocatorIiEEEEEEvPT_, symObjAddr: 0x36A8, symBinAddr: 0x100006E5C, symSize: 0x10 }
  - { offsetInCU: 0xA211, offset: 0xA211, size: 0x8, addend: 0x0, symName: __ZNSt3__118__debug_db_erase_cB7v160006INS_6vectorIiNS_9allocatorIiEEEEEEvPT_, symObjAddr: 0x3964, symBinAddr: 0x100007118, symSize: 0x10 }
  - { offsetInCU: 0xA242, offset: 0xA242, size: 0x8, addend: 0x0, symName: __ZNSt3__112__to_addressB7v160006IiEEPT_S2_, symObjAddr: 0x3A80, symBinAddr: 0x100007234, symSize: 0x14 }
  - { offsetInCU: 0xA277, offset: 0xA277, size: 0x8, addend: 0x0, symName: __ZNSt3__119__allocate_at_leastB7v160006INS_9allocatorIiEEEENS_19__allocation_resultINS_16allocator_traitsIT_E7pointerEEERS5_m, symObjAddr: 0x43F0, symBinAddr: 0x100007BA4, symSize: 0x40 }
  - { offsetInCU: 0xA2BA, offset: 0xA2BA, size: 0x8, addend: 0x0, symName: __ZNSt3__142__uninitialized_allocator_move_if_noexceptB7v160006INS_9allocatorIiEENS_16reverse_iteratorIPiEES5_ivEET1_RT_T0_S9_S6_, symObjAddr: 0x45D0, symBinAddr: 0x100007D84, symSize: 0xE8 }
  - { offsetInCU: 0xA337, offset: 0xA337, size: 0x8, addend: 0x0, symName: __ZNSt3__14swapB7v160006IPiEEvRT_S3_, symObjAddr: 0x4704, symBinAddr: 0x100007EB8, symSize: 0x3C }
  - { offsetInCU: 0xA388, offset: 0xA388, size: 0x8, addend: 0x0, symName: __ZNSt3__125__debug_db_invalidate_allB7v160006INS_6vectorIiNS_9allocatorIiEEEEEEvPT_, symObjAddr: 0x47EC, symBinAddr: 0x100007FA0, symSize: 0x10 }
  - { offsetInCU: 0xA3B9, offset: 0xA3B9, size: 0x8, addend: 0x0, symName: __ZNSt3__1neB7v160006IPiS1_EEbRKNS_16reverse_iteratorIT_EERKNS2_IT0_EE, symObjAddr: 0x47FC, symBinAddr: 0x100007FB0, symSize: 0x48 }
  - { offsetInCU: 0xA42A, offset: 0xA42A, size: 0x8, addend: 0x0, symName: __ZNSt3__114__construct_atB7v160006IiJiEPiEEPT_S3_DpOT0_, symObjAddr: 0x4844, symBinAddr: 0x100007FF8, symSize: 0x2C }
  - { offsetInCU: 0xA49A, offset: 0xA49A, size: 0x8, addend: 0x0, symName: __ZNSt3__112__to_addressB7v160006INS_16reverse_iteratorIPiEEvEENS_5decayIDTclsr19__to_address_helperIT_EE6__callclsr3stdE7declvalIRKS5_EEEEE4typeES7_, symObjAddr: 0x4870, symBinAddr: 0x100008024, symSize: 0x24 }
  - { offsetInCU: 0xA4D0, offset: 0xA4D0, size: 0x8, addend: 0x0, symName: __ZNSt3__14moveB7v160006INS_16reverse_iteratorIPiEES3_EET0_T_S5_S4_, symObjAddr: 0x48DC, symBinAddr: 0x100008090, symSize: 0x78 }
  - { offsetInCU: 0xA553, offset: 0xA553, size: 0x8, addend: 0x0, symName: __ZNSt3__16__moveB7v160006INS_17_ClassicAlgPolicyENS_16reverse_iteratorIPiEES4_S4_EENS_4pairIT0_T2_EES6_T1_S7_, symObjAddr: 0x49C4, symBinAddr: 0x100008178, symSize: 0x64 }
  - { offsetInCU: 0xA5BF, offset: 0xA5BF, size: 0x8, addend: 0x0, symName: __ZNSt3__123__dispatch_copy_or_moveB7v160006INS_17_ClassicAlgPolicyENS_11__move_loopIS1_EENS_14__move_trivialENS_16reverse_iteratorIPiEES7_S7_EENS_4pairIT2_T4_EES9_T3_SA_, symObjAddr: 0x4A28, symBinAddr: 0x1000081DC, symSize: 0x7C }
  - { offsetInCU: 0xA63D, offset: 0xA63D, size: 0x8, addend: 0x0, symName: __ZNSt3__121__unwrap_and_dispatchB7v160006INS_10__overloadINS_11__move_loopINS_17_ClassicAlgPolicyEEENS_14__move_trivialEEENS_16reverse_iteratorIPiEES9_S9_Li0EEENS_4pairIT0_T2_EESB_T1_SC_, symObjAddr: 0x4AA4, symBinAddr: 0x100008258, symSize: 0x12C }
  - { offsetInCU: 0xA6CD, offset: 0xA6CD, size: 0x8, addend: 0x0, symName: __ZNSt3__114__unwrap_rangeB7v160006INS_16reverse_iteratorIPiEES3_EENS_4pairIT0_S5_EET_S7_, symObjAddr: 0x4BD0, symBinAddr: 0x100008384, symSize: 0x84 }
  - { offsetInCU: 0xA7C6, offset: 0xA7C6, size: 0x8, addend: 0x0, symName: __ZNSt3__113__unwrap_iterB7v160006INS_16reverse_iteratorIPiEENS_18__unwrap_iter_implIS3_Lb0EEELi0EEEDTclsrT0_8__unwrapclsr3stdE7declvalIT_EEEES7_, symObjAddr: 0x4CF4, symBinAddr: 0x1000084A8, symSize: 0x44 }
  - { offsetInCU: 0xA80A, offset: 0xA80A, size: 0x8, addend: 0x0, symName: __ZNSt3__19make_pairB7v160006INS_16reverse_iteratorIPiEES3_EENS_4pairINS_18__unwrap_ref_decayIT_E4typeENS5_IT0_E4typeEEEOS6_OS9_, symObjAddr: 0x4D38, symBinAddr: 0x1000084EC, symSize: 0x38 }
  - { offsetInCU: 0xA859, offset: 0xA859, size: 0x8, addend: 0x0, symName: __ZNSt3__114__rewrap_rangeB7v160006INS_16reverse_iteratorIPiEES3_EET_S4_T0_, symObjAddr: 0x4D70, symBinAddr: 0x100008524, symSize: 0x5C }
  - { offsetInCU: 0xA8A5, offset: 0xA8A5, size: 0x8, addend: 0x0, symName: __ZNSt3__113__rewrap_iterB7v160006INS_16reverse_iteratorIPiEES3_NS_18__unwrap_iter_implIS3_Lb0EEEEET_S6_T0_, symObjAddr: 0x4DCC, symBinAddr: 0x100008580, symSize: 0x88 }
  - { offsetInCU: 0xA966, offset: 0xA966, size: 0x8, addend: 0x0, symName: __ZNSt3__119__debug_db_insert_cB7v160006INS_12basic_stringIcNS_11char_traitsIcEENS_9allocatorIcEEEEEEvPT_, symObjAddr: 0x5240, symBinAddr: 0x1000089F4, symSize: 0x10 }
  - { offsetInCU: 0xA997, offset: 0xA997, size: 0x8, addend: 0x0, symName: __ZNSt3__118__constexpr_strlenB7v160006EPKc, symObjAddr: 0x530C, symBinAddr: 0x100008AC0, symSize: 0x24 }
  - { offsetInCU: 0xA9E7, offset: 0xA9E7, size: 0x8, addend: 0x0, symName: __ZNSt3__1miB7v160006IPiS1_EENS_11__wrap_iterIT_E15difference_typeERKS4_RKNS2_IT0_EE, symObjAddr: 0x563C, symBinAddr: 0x100008DF0, symSize: 0x48 }
  - { offsetInCU: 0xAA33, offset: 0xAA33, size: 0x8, addend: 0x0, symName: __ZNSt3__1ltB7v160006IPiEEbRKNS_11__wrap_iterIT_EES6_, symObjAddr: 0x56E0, symBinAddr: 0x100008E94, symSize: 0x48 }
  - { offsetInCU: 0xAA76, offset: 0xAA76, size: 0x8, addend: 0x0, symName: __ZNSt3__113__countl_zeroB7v160006ImEEiT_, symObjAddr: 0x5A5C, symBinAddr: 0x100009210, symSize: 0x54 }
  - { offsetInCU: 0xAAAB, offset: 0xAAAB, size: 0x8, addend: 0x0, symName: __ZNSt3__112__libcpp_clzB7v160006Em, symObjAddr: 0x60EC, symBinAddr: 0x1000098A0, symSize: 0x1C }
  - { offsetInCU: 0xAAD7, offset: 0xAAD7, size: 0x8, addend: 0x0, symName: __ZNSt3__19iter_swapB7v160006INS_11__wrap_iterIPiEES3_EEvT_T0_, symObjAddr: 0x613C, symBinAddr: 0x1000098F0, symSize: 0x50 }
  - { offsetInCU: 0xAB1F, offset: 0xAB1F, size: 0x8, addend: 0x0, symName: __ZNSt3__14swapB7v160006IiEEvRT_S2_, symObjAddr: 0x618C, symBinAddr: 0x100009940, symSize: 0x3C }
  - { offsetInCU: 0xAB8C, offset: 0xAB8C, size: 0x8, addend: 0x0, symName: __ZNSt3__116__pad_and_outputB7v160006IcNS_11char_traitsIcEEEENS_19ostreambuf_iteratorIT_T0_EES6_PKS4_S8_S8_RNS_8ios_baseES4_, symObjAddr: 0x6E50, symBinAddr: 0x10000A604, symSize: 0x248 }
  - { offsetInCU: 0xAC5B, offset: 0xAC5B, size: 0x8, addend: 0x0, symName: __ZNSt3__112__to_addressB7v160006IKcEEPT_S3_, symObjAddr: 0x72D0, symBinAddr: 0x10000AA84, symSize: 0x14 }
  - { offsetInCU: 0xACC3, offset: 0xACC3, size: 0x8, addend: 0x0, symName: __ZNSt3__19use_facetB7v160006INS_5ctypeIcEEEERKT_RKNS_6localeE, symObjAddr: 0x75A8, symBinAddr: 0x10000AD5C, symSize: 0x2C }
  - { offsetInCU: 0xB5A5, offset: 0xB5A5, size: 0x8, addend: 0x0, symName: __ZSt28__throw_bad_array_new_lengthB7v160006v, symObjAddr: 0x2310, symBinAddr: 0x100005AC4, symSize: 0x34 }
  - { offsetInCU: 0xBB31, offset: 0xBB31, size: 0x8, addend: 0x0, symName: __ZNSt3__16vectorIP4NodeIiENS_9allocatorIS3_EEE26__swap_out_circular_bufferERNS_14__split_bufferIS3_RS5_EE, symObjAddr: 0x19AC, symBinAddr: 0x100005160, symSize: 0x118 }
  - { offsetInCU: 0xBD12, offset: 0xBD12, size: 0x8, addend: 0x0, symName: __ZNSt3__16vectorIiNS_9allocatorIiEEE26__swap_out_circular_bufferERNS_14__split_bufferIiRS2_EE, symObjAddr: 0x4074, symBinAddr: 0x100007828, symSize: 0x118 }
  - { offsetInCU: 0xBDB6, offset: 0xBDB6, size: 0x8, addend: 0x0, symName: __ZNSt3__124uniform_int_distributionIlEclINS_23mersenne_twister_engineIjLm32ELm624ELm397ELm31ELj2567483615ELm11ELj4294967295ELm7ELj2636928640ELm15ELj4022730752ELm18ELj1812433253EEEEElRT_RKNS1_10param_typeE, symObjAddr: 0x5728, symBinAddr: 0x100008EDC, symSize: 0x174 }
  - { offsetInCU: 0xBED0, offset: 0xBED0, size: 0x8, addend: 0x0, symName: __ZNKSt3__16chrono15__duration_castINS0_8durationIxNS_5ratioILl1ELl1000000000EEEEENS2_IxNS3_ILl1ELl1000000EEEEENS3_ILl1ELl1000EEELb1ELb0EEclB7v160006ERKS5_, symObjAddr: 0x6B94, symBinAddr: 0x10000A348, symSize: 0x48 }
  - { offsetInCU: 0xE260, offset: 0xE260, size: 0x8, addend: 0x0, symName: _main, symObjAddr: 0x0, symBinAddr: 0x1000037B4, symSize: 0x7BC }
  - { offsetInCU: 0xE440, offset: 0xE440, size: 0x8, addend: 0x0, symName: __ZN7hashmapIiEC1Ei, symObjAddr: 0x7BC, symBinAddr: 0x100003F70, symSize: 0x34 }
  - { offsetInCU: 0xE664, offset: 0xE664, size: 0x8, addend: 0x0, symName: __ZN7AVLTreeIiEC1Ev, symObjAddr: 0x7F0, symBinAddr: 0x100003FA4, symSize: 0x2C }
  - { offsetInCU: 0xE68F, offset: 0xE68F, size: 0x8, addend: 0x0, symName: __ZNSt3__16vectorIiNS_9allocatorIiEEEC1B7v160006Ev, symObjAddr: 0x81C, symBinAddr: 0x100003FD0, symSize: 0x2C }
  - { offsetInCU: 0xE6B9, offset: 0xE6B9, size: 0x8, addend: 0x0, symName: __ZNSt3__16vectorIiNS_9allocatorIiEEE9push_backB7v160006ERKi, symObjAddr: 0x848, symBinAddr: 0x100003FFC, symSize: 0x6C }
  - { offsetInCU: 0xE6F5, offset: 0xE6F5, size: 0x8, addend: 0x0, symName: __ZNSt3__112basic_stringIcNS_11char_traitsIcEENS_9allocatorIcEEEC1B7v160006IDnEEPKc, symObjAddr: 0x8B4, symBinAddr: 0x100004068, symSize: 0x34 }
  - { offsetInCU: 0xE733, offset: 0xE733, size: 0x8, addend: 0x0, symName: __ZNSt3__123mersenne_twister_engineIjLm32ELm624ELm397ELm31ELj2567483615ELm11ELj4294967295ELm7ELj2636928640ELm15ELj4022730752ELm18ELj1812433253EEC1B7v160006Ej, symObjAddr: 0x8F4, symBinAddr: 0x1000040A8, symSize: 0x34 }
  - { offsetInCU: 0xE76B, offset: 0xE76B, size: 0x8, addend: 0x0, symName: __ZNSt3__16vectorIiNS_9allocatorIiEEE5beginB7v160006Ev, symObjAddr: 0x970, symBinAddr: 0x100004124, symSize: 0x30 }
  - { offsetInCU: 0xE793, offset: 0xE793, size: 0x8, addend: 0x0, symName: __ZNSt3__16vectorIiNS_9allocatorIiEEE3endB7v160006Ev, symObjAddr: 0x9A0, symBinAddr: 0x100004154, symSize: 0x30 }
  - { offsetInCU: 0xE7BB, offset: 0xE7BB, size: 0x8, addend: 0x0, symName: __ZNKSt3__16vectorIiNS_9allocatorIiEEE4sizeB7v160006Ev, symObjAddr: 0x9D0, symBinAddr: 0x100004184, symSize: 0x28 }
  - { offsetInCU: 0xE7E1, offset: 0xE7E1, size: 0x8, addend: 0x0, symName: __ZN7AVLTreeIiE6insertEi, symObjAddr: 0x9F8, symBinAddr: 0x1000041AC, symSize: 0x9C }
  - { offsetInCU: 0xE816, offset: 0xE816, size: 0x8, addend: 0x0, symName: __ZNSt3__16vectorIiNS_9allocatorIiEEEixB7v160006Em, symObjAddr: 0xA94, symBinAddr: 0x100004248, symSize: 0x24 }
  - { offsetInCU: 0xE84D, offset: 0xE84D, size: 0x8, addend: 0x0, symName: __ZNKSt3__16chrono8durationIxNS_5ratioILl1ELl1000000EEEE5countB7v160006Ev, symObjAddr: 0xB88, symBinAddr: 0x10000433C, symSize: 0x18 }
  - { offsetInCU: 0xE873, offset: 0xE873, size: 0x8, addend: 0x0, symName: __ZNSt3__113basic_ostreamIcNS_11char_traitsIcEEElsB7v160006EPFRS3_S4_E, symObjAddr: 0xBA0, symBinAddr: 0x100004354, symSize: 0x2C }
  - { offsetInCU: 0xE8A7, offset: 0xE8A7, size: 0x8, addend: 0x0, symName: __ZN7hashmapIiE6insertEii, symObjAddr: 0xC24, symBinAddr: 0x1000043D8, symSize: 0x228 }
  - { offsetInCU: 0xE914, offset: 0xE914, size: 0x8, addend: 0x0, symName: __ZN7AVLTreeIiE8containsEi, symObjAddr: 0xE4C, symBinAddr: 0x100004600, symSize: 0x78 }
  - { offsetInCU: 0xE949, offset: 0xE949, size: 0x8, addend: 0x0, symName: __ZNKSt3__16chrono8durationIxNS_5ratioILl1ELl1000000000EEEE5countB7v160006Ev, symObjAddr: 0xEF4, symBinAddr: 0x1000046A8, symSize: 0x18 }
  - { offsetInCU: 0xE96F, offset: 0xE96F, size: 0x8, addend: 0x0, symName: __ZN7hashmapIiE4findEii, symObjAddr: 0xF0C, symBinAddr: 0x1000046C0, symSize: 0xC8 }
  - { offsetInCU: 0xE9C0, offset: 0xE9C0, size: 0x8, addend: 0x0, symName: __ZNSt3__16vectorIiNS_9allocatorIiEEED1B7v160006Ev, symObjAddr: 0xFD4, symBinAddr: 0x100004788, symSize: 0x2C }
  - { offsetInCU: 0xE9EA, offset: 0xE9EA, size: 0x8, addend: 0x0, symName: __ZN7AVLTreeIiED1Ev, symObjAddr: 0x1000, symBinAddr: 0x1000047B4, symSize: 0x2C }
  - { offsetInCU: 0xEA15, offset: 0xEA15, size: 0x8, addend: 0x0, symName: __ZN7hashmapIiED1Ev, symObjAddr: 0x102C, symBinAddr: 0x1000047E0, symSize: 0x2C }
  - { offsetInCU: 0xEA40, offset: 0xEA40, size: 0x8, addend: 0x0, symName: __ZN7hashmapIiEC2Ei, symObjAddr: 0x1058, symBinAddr: 0x10000480C, symSize: 0x128 }
  - { offsetInCU: 0xEA79, offset: 0xEA79, size: 0x8, addend: 0x0, symName: __ZN4NodeIiEC2Ev, symObjAddr: 0x1180, symBinAddr: 0x100004934, symSize: 0x24 }
  - { offsetInCU: 0xEAA4, offset: 0xEAA4, size: 0x8, addend: 0x0, symName: __ZNSt3__16vectorIP4NodeIiENS_9allocatorIS3_EEEC1B7v160006Ev, symObjAddr: 0x11A4, symBinAddr: 0x100004958, symSize: 0x2C }
  - { offsetInCU: 0xEACE, offset: 0xEACE, size: 0x8, addend: 0x0, symName: __ZNSt16invalid_argumentC1B7v160006EPKc, symObjAddr: 0x11D0, symBinAddr: 0x100004984, symSize: 0x34 }
  - { offsetInCU: 0xEB06, offset: 0xEB06, size: 0x8, addend: 0x0, symName: __ZNSt3__16vectorIP4NodeIiENS_9allocatorIS3_EEE6resizeEm, symObjAddr: 0x1204, symBinAddr: 0x1000049B8, symSize: 0x94 }
  - { offsetInCU: 0xEB4C, offset: 0xEB4C, size: 0x8, addend: 0x0, symName: __ZNSt3__16vectorIP4NodeIiENS_9allocatorIS3_EEED1B7v160006Ev, symObjAddr: 0x1298, symBinAddr: 0x100004A4C, symSize: 0x2C }
  - { offsetInCU: 0xEB76, offset: 0xEB76, size: 0x8, addend: 0x0, symName: __ZN4NodeIiED2Ev, symObjAddr: 0x12C4, symBinAddr: 0x100004A78, symSize: 0x14 }
  - { offsetInCU: 0xEBA1, offset: 0xEBA1, size: 0x8, addend: 0x0, symName: __ZN4NodeIiE6isListEv, symObjAddr: 0x12D8, symBinAddr: 0x100004A8C, symSize: 0x18 }
  - { offsetInCU: 0xEBC8, offset: 0xEBC8, size: 0x8, addend: 0x0, symName: __ZN7hashmapIiE5isMapEv, symObjAddr: 0x12F0, symBinAddr: 0x100004AA4, symSize: 0x18 }
  - { offsetInCU: 0xEBEF, offset: 0xEBEF, size: 0x8, addend: 0x0, symName: __ZN4NodeIiE7slotValEv, symObjAddr: 0x1308, symBinAddr: 0x100004ABC, symSize: 0x14 }
  - { offsetInCU: 0xEC16, offset: 0xEC16, size: 0x8, addend: 0x0, symName: __ZN4NodeIiE6insertEii, symObjAddr: 0x131C, symBinAddr: 0x100004AD0, symSize: 0x18 }
  - { offsetInCU: 0xEC59, offset: 0xEC59, size: 0x8, addend: 0x0, symName: __ZN4NodeIiE5isMapEv, symObjAddr: 0x1334, symBinAddr: 0x100004AE8, symSize: 0x18 }
  - { offsetInCU: 0xEC80, offset: 0xEC80, size: 0x8, addend: 0x0, symName: __ZN4NodeIiE4findEii, symObjAddr: 0x134C, symBinAddr: 0x100004B00, symSize: 0x20 }
  - { offsetInCU: 0xECC3, offset: 0xECC3, size: 0x8, addend: 0x0, symName: __ZNSt3__16vectorIP4NodeIiENS_9allocatorIS3_EEEC2B7v160006Ev, symObjAddr: 0x136C, symBinAddr: 0x100004B20, symSize: 0x4C }
  - { offsetInCU: 0xECF9, offset: 0xECF9, size: 0x8, addend: 0x0, symName: __ZNSt3__117__compressed_pairIPP4NodeIiENS_9allocatorIS3_EEEC1B7v160006IDnNS_18__default_init_tagEEEOT_OT0_, symObjAddr: 0x13B8, symBinAddr: 0x100004B6C, symSize: 0x3C }
  - { offsetInCU: 0xED51, offset: 0xED51, size: 0x8, addend: 0x0, symName: __ZNSt3__117__compressed_pairIPP4NodeIiENS_9allocatorIS3_EEEC2B7v160006IDnNS_18__default_init_tagEEEOT_OT0_, symObjAddr: 0x1404, symBinAddr: 0x100004BB8, symSize: 0x40 }
  - { offsetInCU: 0xEDA9, offset: 0xEDA9, size: 0x8, addend: 0x0, symName: __ZNSt3__122__compressed_pair_elemIPP4NodeIiELi0ELb0EEC2B7v160006IDnvEEOT_, symObjAddr: 0x1444, symBinAddr: 0x100004BF8, symSize: 0x1C }
  - { offsetInCU: 0xEDEB, offset: 0xEDEB, size: 0x8, addend: 0x0, symName: __ZNSt3__122__compressed_pair_elemINS_9allocatorIP4NodeIiEEELi1ELb1EEC2B7v160006ENS_18__default_init_tagE, symObjAddr: 0x1460, symBinAddr: 0x100004C14, symSize: 0x2C }
  - { offsetInCU: 0xEE20, offset: 0xEE20, size: 0x8, addend: 0x0, symName: __ZNSt3__19allocatorIP4NodeIiEEC2B7v160006Ev, symObjAddr: 0x148C, symBinAddr: 0x100004C40, symSize: 0x2C }
  - { offsetInCU: 0xEE4A, offset: 0xEE4A, size: 0x8, addend: 0x0, symName: __ZNSt3__116__non_trivial_ifILb1ENS_9allocatorIP4NodeIiEEEEC2B7v160006Ev, symObjAddr: 0x14B8, symBinAddr: 0x100004C6C, symSize: 0x14 }
  - { offsetInCU: 0xEE74, offset: 0xEE74, size: 0x8, addend: 0x0, symName: __ZNSt16invalid_argumentC2B7v160006EPKc, symObjAddr: 0x14CC, symBinAddr: 0x100004C80, symSize: 0x4C }
  - { offsetInCU: 0xEEAC, offset: 0xEEAC, size: 0x8, addend: 0x0, symName: __ZNKSt3__16vectorIP4NodeIiENS_9allocatorIS3_EEE4sizeB7v160006Ev, symObjAddr: 0x1518, symBinAddr: 0x100004CCC, symSize: 0x28 }
  - { offsetInCU: 0xEED2, offset: 0xEED2, size: 0x8, addend: 0x0, symName: __ZNSt3__16vectorIP4NodeIiENS_9allocatorIS3_EEE8__appendEm, symObjAddr: 0x1540, symBinAddr: 0x100004CF4, symSize: 0x110 }
  - { offsetInCU: 0xEF2D, offset: 0xEF2D, size: 0x8, addend: 0x0, symName: __ZNSt3__16vectorIP4NodeIiENS_9allocatorIS3_EEE17__destruct_at_endB7v160006EPS3_, symObjAddr: 0x1650, symBinAddr: 0x100004E04, symSize: 0x88 }
  - { offsetInCU: 0xEF71, offset: 0xEF71, size: 0x8, addend: 0x0, symName: __ZNSt3__16vectorIP4NodeIiENS_9allocatorIS3_EEE9__end_capB7v160006Ev, symObjAddr: 0x16D8, symBinAddr: 0x100004E8C, symSize: 0x28 }
  - { offsetInCU: 0xEF97, offset: 0xEF97, size: 0x8, addend: 0x0, symName: __ZNSt3__16vectorIP4NodeIiENS_9allocatorIS3_EEE18__construct_at_endEm, symObjAddr: 0x1700, symBinAddr: 0x100004EB4, symSize: 0xD0 }
  - { offsetInCU: 0xF009, offset: 0xF009, size: 0x8, addend: 0x0, symName: __ZNSt3__16vectorIP4NodeIiENS_9allocatorIS3_EEE7__allocB7v160006Ev, symObjAddr: 0x17D0, symBinAddr: 0x100004F84, symSize: 0x28 }
  - { offsetInCU: 0xF02F, offset: 0xF02F, size: 0x8, addend: 0x0, symName: __ZNKSt3__16vectorIP4NodeIiENS_9allocatorIS3_EEE11__recommendB7v160006Em, symObjAddr: 0x17F8, symBinAddr: 0x100004FAC, symSize: 0xB4 }
  - { offsetInCU: 0xF084, offset: 0xF084, size: 0x8, addend: 0x0, symName: __ZNSt3__114__split_bufferIP4NodeIiERNS_9allocatorIS3_EEEC1EmmS6_, symObjAddr: 0x18AC, symBinAddr: 0x100005060, symSize: 0x44 }
  - { offsetInCU: 0xF0DA, offset: 0xF0DA, size: 0x8, addend: 0x0, symName: __ZNSt3__114__split_bufferIP4NodeIiERNS_9allocatorIS3_EEE18__construct_at_endEm, symObjAddr: 0x18F0, symBinAddr: 0x1000050A4, symSize: 0xBC }
  - { offsetInCU: 0xF11D, offset: 0xF11D, size: 0x8, addend: 0x0, symName: __ZNSt3__114__split_bufferIP4NodeIiERNS_9allocatorIS3_EEED1Ev, symObjAddr: 0x1AC4, symBinAddr: 0x100005278, symSize: 0x2C }
  - { offsetInCU: 0xF149, offset: 0xF149, size: 0x8, addend: 0x0, symName: __ZNSt3__117__compressed_pairIPP4NodeIiENS_9allocatorIS3_EEE5firstB7v160006Ev, symObjAddr: 0x1AF0, symBinAddr: 0x1000052A4, symSize: 0x24 }
  - { offsetInCU: 0xF16F, offset: 0xF16F, size: 0x8, addend: 0x0, symName: __ZNSt3__122__compressed_pair_elemIPP4NodeIiELi0ELb0EE5__getB7v160006Ev, symObjAddr: 0x1B14, symBinAddr: 0x1000052C8, symSize: 0x14 }
  - { offsetInCU: 0xF1AE, offset: 0xF1AE, size: 0x8, addend: 0x0, symName: __ZNSt3__16vectorIP4NodeIiENS_9allocatorIS3_EEE21_ConstructTransactionC1B7v160006ERS6_m, symObjAddr: 0x1B28, symBinAddr: 0x1000052DC, symSize: 0x3C }
  - { offsetInCU: 0xF1F6, offset: 0xF1F6, size: 0x8, addend: 0x0, symName: __ZNSt3__116allocator_traitsINS_9allocatorIP4NodeIiEEEE9constructB7v160006IS4_JEvEEvRS5_PT_DpOT0_, symObjAddr: 0x1B64, symBinAddr: 0x100005318, symSize: 0x2C }
  - { offsetInCU: 0xF238, offset: 0xF238, size: 0x8, addend: 0x0, symName: __ZNSt3__16vectorIP4NodeIiENS_9allocatorIS3_EEE21_ConstructTransactionD1B7v160006Ev, symObjAddr: 0x1BA4, symBinAddr: 0x100005358, symSize: 0x2C }
  - { offsetInCU: 0xF262, offset: 0xF262, size: 0x8, addend: 0x0, symName: __ZNSt3__16vectorIP4NodeIiENS_9allocatorIS3_EEE21_ConstructTransactionC2B7v160006ERS6_m, symObjAddr: 0x1BD0, symBinAddr: 0x100005384, symSize: 0x44 }
  - { offsetInCU: 0xF2AA, offset: 0xF2AA, size: 0x8, addend: 0x0, symName: __ZNSt3__19allocatorIP4NodeIiEE9constructB7v160006IS3_JEEEvPT_DpOT0_, symObjAddr: 0x1C14, symBinAddr: 0x1000053C8, symSize: 0x1C }
  - { offsetInCU: 0xF2EC, offset: 0xF2EC, size: 0x8, addend: 0x0, symName: __ZNSt3__16vectorIP4NodeIiENS_9allocatorIS3_EEE21_ConstructTransactionD2B7v160006Ev, symObjAddr: 0x1C30, symBinAddr: 0x1000053E4, symSize: 0x20 }
  - { offsetInCU: 0xF316, offset: 0xF316, size: 0x8, addend: 0x0, symName: __ZNSt3__117__compressed_pairIPP4NodeIiENS_9allocatorIS3_EEE6secondB7v160006Ev, symObjAddr: 0x1C50, symBinAddr: 0x100005404, symSize: 0x24 }
  - { offsetInCU: 0xF33C, offset: 0xF33C, size: 0x8, addend: 0x0, symName: __ZNSt3__122__compressed_pair_elemINS_9allocatorIP4NodeIiEEELi1ELb1EE5__getB7v160006Ev, symObjAddr: 0x1C74, symBinAddr: 0x100005428, symSize: 0x14 }
  - { offsetInCU: 0xF362, offset: 0xF362, size: 0x8, addend: 0x0, symName: __ZNKSt3__16vectorIP4NodeIiENS_9allocatorIS3_EEE8max_sizeEv, symObjAddr: 0x1C88, symBinAddr: 0x10000543C, symSize: 0x74 }
  - { offsetInCU: 0xF38A, offset: 0xF38A, size: 0x8, addend: 0x0, symName: __ZNKSt3__16vectorIP4NodeIiENS_9allocatorIS3_EEE20__throw_length_errorB7v160006Ev, symObjAddr: 0x1CFC, symBinAddr: 0x1000054B0, symSize: 0x1C }
  - { offsetInCU: 0xF3B0, offset: 0xF3B0, size: 0x8, addend: 0x0, symName: __ZNKSt3__16vectorIP4NodeIiENS_9allocatorIS3_EEE8capacityB7v160006Ev, symObjAddr: 0x1D18, symBinAddr: 0x1000054CC, symSize: 0x40 }
  - { offsetInCU: 0xF3E0, offset: 0xF3E0, size: 0x8, addend: 0x0, symName: __ZNSt3__116allocator_traitsINS_9allocatorIP4NodeIiEEEE8max_sizeB7v160006IS5_vEEmRKS5_, symObjAddr: 0x1DB0, symBinAddr: 0x100005564, symSize: 0x24 }
  - { offsetInCU: 0xF40E, offset: 0xF40E, size: 0x8, addend: 0x0, symName: __ZNKSt3__16vectorIP4NodeIiENS_9allocatorIS3_EEE7__allocB7v160006Ev, symObjAddr: 0x1DD4, symBinAddr: 0x100005588, symSize: 0x28 }
  - { offsetInCU: 0xF434, offset: 0xF434, size: 0x8, addend: 0x0, symName: __ZNSt3__114numeric_limitsIlE3maxB7v160006Ev, symObjAddr: 0x1DFC, symBinAddr: 0x1000055B0, symSize: 0x14 }
  - { offsetInCU: 0xF45C, offset: 0xF45C, size: 0x8, addend: 0x0, symName: __ZNKSt3__16__lessImmEclB7v160006ERKmS3_, symObjAddr: 0x1E64, symBinAddr: 0x100005618, symSize: 0x34 }
  - { offsetInCU: 0xF49E, offset: 0xF49E, size: 0x8, addend: 0x0, symName: __ZNKSt3__19allocatorIP4NodeIiEE8max_sizeB7v160006Ev, symObjAddr: 0x1E98, symBinAddr: 0x10000564C, symSize: 0x14 }
  - { offsetInCU: 0xF4C4, offset: 0xF4C4, size: 0x8, addend: 0x0, symName: __ZNKSt3__117__compressed_pairIPP4NodeIiENS_9allocatorIS3_EEE6secondB7v160006Ev, symObjAddr: 0x1EAC, symBinAddr: 0x100005660, symSize: 0x24 }
  - { offsetInCU: 0xF4EA, offset: 0xF4EA, size: 0x8, addend: 0x0, symName: __ZNKSt3__122__compressed_pair_elemINS_9allocatorIP4NodeIiEEELi1ELb1EE5__getB7v160006Ev, symObjAddr: 0x1ED0, symBinAddr: 0x100005684, symSize: 0x14 }
  - { offsetInCU: 0xF510, offset: 0xF510, size: 0x8, addend: 0x0, symName: __ZNSt3__123__libcpp_numeric_limitsIlLb1EE3maxB7v160006Ev, symObjAddr: 0x1EE4, symBinAddr: 0x100005698, symSize: 0x8 }
  - { offsetInCU: 0xF524, offset: 0xF524, size: 0x8, addend: 0x0, symName: __ZNSt12length_errorC1B7v160006EPKc, symObjAddr: 0x1F50, symBinAddr: 0x100005704, symSize: 0x34 }
  - { offsetInCU: 0xF55C, offset: 0xF55C, size: 0x8, addend: 0x0, symName: __ZNSt12length_errorC2B7v160006EPKc, symObjAddr: 0x1F84, symBinAddr: 0x100005738, symSize: 0x4C }
  - { offsetInCU: 0xF594, offset: 0xF594, size: 0x8, addend: 0x0, symName: __ZNKSt3__16vectorIP4NodeIiENS_9allocatorIS3_EEE9__end_capB7v160006Ev, symObjAddr: 0x1FD0, symBinAddr: 0x100005784, symSize: 0x28 }
  - { offsetInCU: 0xF5BA, offset: 0xF5BA, size: 0x8, addend: 0x0, symName: __ZNKSt3__117__compressed_pairIPP4NodeIiENS_9allocatorIS3_EEE5firstB7v160006Ev, symObjAddr: 0x1FF8, symBinAddr: 0x1000057AC, symSize: 0x24 }
  - { offsetInCU: 0xF5E0, offset: 0xF5E0, size: 0x8, addend: 0x0, symName: __ZNKSt3__122__compressed_pair_elemIPP4NodeIiELi0ELb0EE5__getB7v160006Ev, symObjAddr: 0x201C, symBinAddr: 0x1000057D0, symSize: 0x14 }
  - { offsetInCU: 0xF606, offset: 0xF606, size: 0x8, addend: 0x0, symName: __ZNSt3__114__split_bufferIP4NodeIiERNS_9allocatorIS3_EEEC2EmmS6_, symObjAddr: 0x2084, symBinAddr: 0x100005838, symSize: 0xD4 }
  - { offsetInCU: 0xF679, offset: 0xF679, size: 0x8, addend: 0x0, symName: __ZNSt3__117__compressed_pairIPP4NodeIiERNS_9allocatorIS3_EEEC1B7v160006IDnS7_EEOT_OT0_, symObjAddr: 0x2158, symBinAddr: 0x10000590C, symSize: 0x3C }
  - { offsetInCU: 0xF6D1, offset: 0xF6D1, size: 0x8, addend: 0x0, symName: __ZNSt3__114__split_bufferIP4NodeIiERNS_9allocatorIS3_EEE7__allocB7v160006Ev, symObjAddr: 0x21D4, symBinAddr: 0x100005988, symSize: 0x28 }
  - { offsetInCU: 0xF6F7, offset: 0xF6F7, size: 0x8, addend: 0x0, symName: __ZNSt3__114__split_bufferIP4NodeIiERNS_9allocatorIS3_EEE9__end_capB7v160006Ev, symObjAddr: 0x21FC, symBinAddr: 0x1000059B0, symSize: 0x28 }
  - { offsetInCU: 0xF71D, offset: 0xF71D, size: 0x8, addend: 0x0, symName: __ZNSt3__117__compressed_pairIPP4NodeIiERNS_9allocatorIS3_EEEC2B7v160006IDnS7_EEOT_OT0_, symObjAddr: 0x2224, symBinAddr: 0x1000059D8, symSize: 0x48 }
  - { offsetInCU: 0xF775, offset: 0xF775, size: 0x8, addend: 0x0, symName: __ZNSt3__122__compressed_pair_elemIRNS_9allocatorIP4NodeIiEEELi1ELb0EEC2B7v160006IS6_vEEOT_, symObjAddr: 0x226C, symBinAddr: 0x100005A20, symSize: 0x20 }
  - { offsetInCU: 0xF7B7, offset: 0xF7B7, size: 0x8, addend: 0x0, symName: __ZNSt3__19allocatorIP4NodeIiEE8allocateB7v160006Em, symObjAddr: 0x228C, symBinAddr: 0x100005A40, symSize: 0x84 }
  - { offsetInCU: 0xF7EB, offset: 0xF7EB, size: 0x8, addend: 0x0, symName: __ZNSt3__117__compressed_pairIPP4NodeIiERNS_9allocatorIS3_EEE6secondB7v160006Ev, symObjAddr: 0x239C, symBinAddr: 0x100005B50, symSize: 0x28 }
  - { offsetInCU: 0xF811, offset: 0xF811, size: 0x8, addend: 0x0, symName: __ZNSt3__122__compressed_pair_elemIRNS_9allocatorIP4NodeIiEEELi1ELb0EE5__getB7v160006Ev, symObjAddr: 0x23C4, symBinAddr: 0x100005B78, symSize: 0x18 }
  - { offsetInCU: 0xF837, offset: 0xF837, size: 0x8, addend: 0x0, symName: __ZNSt3__117__compressed_pairIPP4NodeIiERNS_9allocatorIS3_EEE5firstB7v160006Ev, symObjAddr: 0x23DC, symBinAddr: 0x100005B90, symSize: 0x24 }
  - { offsetInCU: 0xF867, offset: 0xF867, size: 0x8, addend: 0x0, symName: __ZNSt3__114__split_bufferIP4NodeIiERNS_9allocatorIS3_EEE21_ConstructTransactionC1B7v160006EPPS3_m, symObjAddr: 0x2400, symBinAddr: 0x100005BB4, symSize: 0x3C }
  - { offsetInCU: 0xF8AD, offset: 0xF8AD, size: 0x8, addend: 0x0, symName: __ZNSt3__114__split_bufferIP4NodeIiERNS_9allocatorIS3_EEE21_ConstructTransactionD1B7v160006Ev, symObjAddr: 0x243C, symBinAddr: 0x100005BF0, symSize: 0x2C }
  - { offsetInCU: 0xF8D7, offset: 0xF8D7, size: 0x8, addend: 0x0, symName: __ZNSt3__114__split_bufferIP4NodeIiERNS_9allocatorIS3_EEE21_ConstructTransactionC2B7v160006EPPS3_m, symObjAddr: 0x2468, symBinAddr: 0x100005C1C, symSize: 0x44 }
  - { offsetInCU: 0xF91D, offset: 0xF91D, size: 0x8, addend: 0x0, symName: __ZNSt3__114__split_bufferIP4NodeIiERNS_9allocatorIS3_EEE21_ConstructTransactionD2B7v160006Ev, symObjAddr: 0x24AC, symBinAddr: 0x100005C60, symSize: 0x20 }
  - { offsetInCU: 0xF947, offset: 0xF947, size: 0x8, addend: 0x0, symName: __ZNKSt3__16vectorIP4NodeIiENS_9allocatorIS3_EEE17__annotate_deleteB7v160006Ev, symObjAddr: 0x24CC, symBinAddr: 0x100005C80, symSize: 0xB8 }
  - { offsetInCU: 0xF96D, offset: 0xF96D, size: 0x8, addend: 0x0, symName: __ZNSt3__116reverse_iteratorIPP4NodeIiEEC1B7v160006ES4_, symObjAddr: 0x266C, symBinAddr: 0x100005E20, symSize: 0x34 }
  - { offsetInCU: 0xF9A5, offset: 0xF9A5, size: 0x8, addend: 0x0, symName: __ZNKSt3__116reverse_iteratorIPP4NodeIiEE4baseB7v160006Ev, symObjAddr: 0x26A0, symBinAddr: 0x100005E54, symSize: 0x18 }
  - { offsetInCU: 0xF9CB, offset: 0xF9CB, size: 0x8, addend: 0x0, symName: __ZNKSt3__16vectorIP4NodeIiENS_9allocatorIS3_EEE14__annotate_newB7v160006Em, symObjAddr: 0x26F4, symBinAddr: 0x100005EA8, symSize: 0xAC }
  - { offsetInCU: 0xFA00, offset: 0xFA00, size: 0x8, addend: 0x0, symName: __ZNKSt3__16vectorIP4NodeIiENS_9allocatorIS3_EEE31__annotate_contiguous_containerB7v160006EPKvS8_S8_S8_, symObjAddr: 0x27B0, symBinAddr: 0x100005F64, symSize: 0x20 }
  - { offsetInCU: 0xFA52, offset: 0xFA52, size: 0x8, addend: 0x0, symName: __ZNKSt3__16vectorIP4NodeIiENS_9allocatorIS3_EEE4dataB7v160006Ev, symObjAddr: 0x27D0, symBinAddr: 0x100005F84, symSize: 0x28 }
  - { offsetInCU: 0xFA78, offset: 0xFA78, size: 0x8, addend: 0x0, symName: __ZNKSt3__116reverse_iteratorIPP4NodeIiEEdeB7v160006Ev, symObjAddr: 0x2890, symBinAddr: 0x100006044, symSize: 0x28 }
  - { offsetInCU: 0xFAAC, offset: 0xFAAC, size: 0x8, addend: 0x0, symName: __ZNSt3__116reverse_iteratorIPP4NodeIiEEppB7v160006Ev, symObjAddr: 0x28B8, symBinAddr: 0x10000606C, symSize: 0x20 }
  - { offsetInCU: 0xFAD7, offset: 0xFAD7, size: 0x8, addend: 0x0, symName: __ZNSt3__119__to_address_helperINS_16reverse_iteratorIPP4NodeIiEEEvE6__callB7v160006ERKS6_, symObjAddr: 0x2950, symBinAddr: 0x100006104, symSize: 0x4C }
  - { offsetInCU: 0xFAFA, offset: 0xFAFA, size: 0x8, addend: 0x0, symName: __ZNKSt3__116reverse_iteratorIPP4NodeIiEEptB7v160006Ev, symObjAddr: 0x299C, symBinAddr: 0x100006150, symSize: 0x24 }
  - { offsetInCU: 0xFB44, offset: 0xFB44, size: 0x8, addend: 0x0, symName: __ZNKSt3__111__move_loopINS_17_ClassicAlgPolicyEEclB7v160006INS_16reverse_iteratorIPP4NodeIiEEES9_S9_EENS_4pairIT_T1_EESB_T0_SC_, symObjAddr: 0x2C50, symBinAddr: 0x100006404, symSize: 0xA0 }
  - { offsetInCU: 0xFBB5, offset: 0xFBB5, size: 0x8, addend: 0x0, symName: __ZNSt3__18_IterOpsINS_17_ClassicAlgPolicyEE11__iter_moveB7v160006IRNS_16reverse_iteratorIPP4NodeIiEEEEENS_9enable_ifIXsr12is_referenceIDTdeclsr3stdE7declvalIRT_EEEEE5valueEDTclsr3stdE4movedeclsr3stdE7declvalISD_EEEEE4typeEOSC_, symObjAddr: 0x2E50, symBinAddr: 0x100006604, symSize: 0x28 }
  - { offsetInCU: 0xFBE1, offset: 0xFBE1, size: 0x8, addend: 0x0, symName: __ZNSt3__18_IterOpsINS_17_ClassicAlgPolicyEE25__validate_iter_referenceB7v160006IRNS_16reverse_iteratorIPP4NodeIiEEEEEvv, symObjAddr: 0x2E78, symBinAddr: 0x10000662C, symSize: 0x4 }
  - { offsetInCU: 0xFBFF, offset: 0xFBFF, size: 0x8, addend: 0x0, symName: __ZNSt3__118__unwrap_iter_implINS_16reverse_iteratorIPP4NodeIiEEELb0EE8__unwrapB7v160006ES6_, symObjAddr: 0x2E7C, symBinAddr: 0x100006630, symSize: 0x24 }
  - { offsetInCU: 0xFC22, offset: 0xFC22, size: 0x8, addend: 0x0, symName: __ZNSt3__14pairINS_16reverse_iteratorIPP4NodeIiEEES6_EC1B7v160006ERKS6_S9_, symObjAddr: 0x2EA0, symBinAddr: 0x100006654, symSize: 0x3C }
  - { offsetInCU: 0xFC68, offset: 0xFC68, size: 0x8, addend: 0x0, symName: __ZNSt3__14pairINS_16reverse_iteratorIPP4NodeIiEEES6_EC2B7v160006ERKS6_S9_, symObjAddr: 0x2EDC, symBinAddr: 0x100006690, symSize: 0x34 }
  - { offsetInCU: 0xFCAE, offset: 0xFCAE, size: 0x8, addend: 0x0, symName: __ZNSt3__118__unwrap_iter_implINS_16reverse_iteratorIPP4NodeIiEEELb0EE8__rewrapB7v160006ES6_S6_, symObjAddr: 0x2F10, symBinAddr: 0x1000066C4, symSize: 0x2C }
  - { offsetInCU: 0xFCDC, offset: 0xFCDC, size: 0x8, addend: 0x0, symName: __ZNSt3__116reverse_iteratorIPP4NodeIiEEC2B7v160006ES4_, symObjAddr: 0x2F3C, symBinAddr: 0x1000066F0, symSize: 0x28 }
  - { offsetInCU: 0xFD14, offset: 0xFD14, size: 0x8, addend: 0x0, symName: __ZNSt3__114__split_bufferIP4NodeIiERNS_9allocatorIS3_EEED2Ev, symObjAddr: 0x2F64, symBinAddr: 0x100006718, symSize: 0x80 }
  - { offsetInCU: 0xFD40, offset: 0xFD40, size: 0x8, addend: 0x0, symName: __ZNSt3__114__split_bufferIP4NodeIiERNS_9allocatorIS3_EEE5clearB7v160006Ev, symObjAddr: 0x2FE4, symBinAddr: 0x100006798, symSize: 0x28 }
  - { offsetInCU: 0xFD66, offset: 0xFD66, size: 0x8, addend: 0x0, symName: __ZNSt3__116allocator_traitsINS_9allocatorIP4NodeIiEEEE10deallocateB7v160006ERS5_PS4_m, symObjAddr: 0x300C, symBinAddr: 0x1000067C0, symSize: 0x34 }
  - { offsetInCU: 0xFDA8, offset: 0xFDA8, size: 0x8, addend: 0x0, symName: __ZNKSt3__114__split_bufferIP4NodeIiERNS_9allocatorIS3_EEE8capacityB7v160006Ev, symObjAddr: 0x3040, symBinAddr: 0x1000067F4, symSize: 0x40 }
  - { offsetInCU: 0xFDCE, offset: 0xFDCE, size: 0x8, addend: 0x0, symName: __ZNSt3__114__split_bufferIP4NodeIiERNS_9allocatorIS3_EEE17__destruct_at_endB7v160006EPS3_, symObjAddr: 0x3080, symBinAddr: 0x100006834, symSize: 0x2C }
  - { offsetInCU: 0xFE02, offset: 0xFE02, size: 0x8, addend: 0x0, symName: __ZNSt3__114__split_bufferIP4NodeIiERNS_9allocatorIS3_EEE17__destruct_at_endB7v160006EPS3_NS_17integral_constantIbLb0EEE, symObjAddr: 0x30AC, symBinAddr: 0x100006860, symSize: 0x94 }
  - { offsetInCU: 0xFE43, offset: 0xFE43, size: 0x8, addend: 0x0, symName: __ZNSt3__116allocator_traitsINS_9allocatorIP4NodeIiEEEE7destroyB7v160006IS4_vEEvRS5_PT_, symObjAddr: 0x3140, symBinAddr: 0x1000068F4, symSize: 0x2C }
  - { offsetInCU: 0xFE80, offset: 0xFE80, size: 0x8, addend: 0x0, symName: __ZNSt3__19allocatorIP4NodeIiEE7destroyB7v160006EPS3_, symObjAddr: 0x316C, symBinAddr: 0x100006920, symSize: 0x14 }
  - { offsetInCU: 0xFEB4, offset: 0xFEB4, size: 0x8, addend: 0x0, symName: __ZNSt3__19allocatorIP4NodeIiEE10deallocateB7v160006EPS3_m, symObjAddr: 0x3180, symBinAddr: 0x100006934, symSize: 0x70 }
  - { offsetInCU: 0xFEF6, offset: 0xFEF6, size: 0x8, addend: 0x0, symName: __ZNKSt3__114__split_bufferIP4NodeIiERNS_9allocatorIS3_EEE9__end_capB7v160006Ev, symObjAddr: 0x326C, symBinAddr: 0x100006A20, symSize: 0x28 }
  - { offsetInCU: 0xFF1C, offset: 0xFF1C, size: 0x8, addend: 0x0, symName: __ZNKSt3__117__compressed_pairIPP4NodeIiERNS_9allocatorIS3_EEE5firstB7v160006Ev, symObjAddr: 0x3294, symBinAddr: 0x100006A48, symSize: 0x24 }
  - { offsetInCU: 0xFF42, offset: 0xFF42, size: 0x8, addend: 0x0, symName: __ZNSt3__16vectorIP4NodeIiENS_9allocatorIS3_EEE27__invalidate_iterators_pastB7v160006EPS3_, symObjAddr: 0x32B8, symBinAddr: 0x100006A6C, symSize: 0x14 }
  - { offsetInCU: 0xFF79, offset: 0xFF79, size: 0x8, addend: 0x0, symName: __ZNSt3__16vectorIP4NodeIiENS_9allocatorIS3_EEE22__base_destruct_at_endB7v160006EPS3_, symObjAddr: 0x32CC, symBinAddr: 0x100006A80, symSize: 0xA0 }
  - { offsetInCU: 0xFFBD, offset: 0xFFBD, size: 0x8, addend: 0x0, symName: __ZNKSt3__16vectorIP4NodeIiENS_9allocatorIS3_EEE17__annotate_shrinkB7v160006Em, symObjAddr: 0x336C, symBinAddr: 0x100006B20, symSize: 0xB4 }
  - { offsetInCU: 0xFFF2, offset: 0xFFF2, size: 0x8, addend: 0x0, symName: __ZNSt3__16vectorIP4NodeIiENS_9allocatorIS3_EEED2B7v160006Ev, symObjAddr: 0x3420, symBinAddr: 0x100006BD4, symSize: 0x3C }
  - { offsetInCU: 0x1001C, offset: 0x1001C, size: 0x8, addend: 0x0, symName: __ZNSt3__16vectorIP4NodeIiENS_9allocatorIS3_EEE16__destroy_vectorC1ERS6_, symObjAddr: 0x345C, symBinAddr: 0x100006C10, symSize: 0x34 }
  - { offsetInCU: 0x10055, offset: 0x10055, size: 0x8, addend: 0x0, symName: __ZNSt3__16vectorIP4NodeIiENS_9allocatorIS3_EEE16__destroy_vectorclB7v160006Ev, symObjAddr: 0x3490, symBinAddr: 0x100006C44, symSize: 0x9C }
  - { offsetInCU: 0x1007B, offset: 0x1007B, size: 0x8, addend: 0x0, symName: __ZNSt3__16vectorIP4NodeIiENS_9allocatorIS3_EEE16__destroy_vectorC2ERS6_, symObjAddr: 0x352C, symBinAddr: 0x100006CE0, symSize: 0x20 }
  - { offsetInCU: 0x100B4, offset: 0x100B4, size: 0x8, addend: 0x0, symName: __ZNSt3__16vectorIP4NodeIiENS_9allocatorIS3_EEE7__clearB7v160006Ev, symObjAddr: 0x355C, symBinAddr: 0x100006D10, symSize: 0x28 }
  - { offsetInCU: 0x100DA, offset: 0x100DA, size: 0x8, addend: 0x0, symName: __ZN7hashmapIiED2Ev, symObjAddr: 0x3584, symBinAddr: 0x100006D38, symSize: 0x70 }
  - { offsetInCU: 0x10105, offset: 0x10105, size: 0x8, addend: 0x0, symName: __ZN7AVLTreeIiEC2Ev, symObjAddr: 0x35F4, symBinAddr: 0x100006DA8, symSize: 0x18 }
  - { offsetInCU: 0x10130, offset: 0x10130, size: 0x8, addend: 0x0, symName: __ZN7AVLTreeIiED2Ev, symObjAddr: 0x360C, symBinAddr: 0x100006DC0, symSize: 0x14 }
  - { offsetInCU: 0x1015B, offset: 0x1015B, size: 0x8, addend: 0x0, symName: __ZNSt3__16vectorIiNS_9allocatorIiEEEC2B7v160006Ev, symObjAddr: 0x3620, symBinAddr: 0x100006DD4, symSize: 0x4C }
  - { offsetInCU: 0x10185, offset: 0x10185, size: 0x8, addend: 0x0, symName: __ZNSt3__117__compressed_pairIPiNS_9allocatorIiEEEC1B7v160006IDnNS_18__default_init_tagEEEOT_OT0_, symObjAddr: 0x366C, symBinAddr: 0x100006E20, symSize: 0x3C }
  - { offsetInCU: 0x101DD, offset: 0x101DD, size: 0x8, addend: 0x0, symName: __ZNSt3__117__compressed_pairIPiNS_9allocatorIiEEEC2B7v160006IDnNS_18__default_init_tagEEEOT_OT0_, symObjAddr: 0x36B8, symBinAddr: 0x100006E6C, symSize: 0x40 }
  - { offsetInCU: 0x10235, offset: 0x10235, size: 0x8, addend: 0x0, symName: __ZNSt3__122__compressed_pair_elemIPiLi0ELb0EEC2B7v160006IDnvEEOT_, symObjAddr: 0x36F8, symBinAddr: 0x100006EAC, symSize: 0x1C }
  - { offsetInCU: 0x10277, offset: 0x10277, size: 0x8, addend: 0x0, symName: __ZNSt3__122__compressed_pair_elemINS_9allocatorIiEELi1ELb1EEC2B7v160006ENS_18__default_init_tagE, symObjAddr: 0x3714, symBinAddr: 0x100006EC8, symSize: 0x2C }
  - { offsetInCU: 0x102AC, offset: 0x102AC, size: 0x8, addend: 0x0, symName: __ZNSt3__19allocatorIiEC2B7v160006Ev, symObjAddr: 0x3740, symBinAddr: 0x100006EF4, symSize: 0x2C }
  - { offsetInCU: 0x102D6, offset: 0x102D6, size: 0x8, addend: 0x0, symName: __ZNSt3__116__non_trivial_ifILb1ENS_9allocatorIiEEEC2B7v160006Ev, symObjAddr: 0x376C, symBinAddr: 0x100006F20, symSize: 0x14 }
  - { offsetInCU: 0x10300, offset: 0x10300, size: 0x8, addend: 0x0, symName: __ZNSt3__16vectorIiNS_9allocatorIiEEED2B7v160006Ev, symObjAddr: 0x3780, symBinAddr: 0x100006F34, symSize: 0x3C }
  - { offsetInCU: 0x1032A, offset: 0x1032A, size: 0x8, addend: 0x0, symName: __ZNSt3__16vectorIiNS_9allocatorIiEEE16__destroy_vectorC1ERS3_, symObjAddr: 0x37BC, symBinAddr: 0x100006F70, symSize: 0x34 }
  - { offsetInCU: 0x10363, offset: 0x10363, size: 0x8, addend: 0x0, symName: __ZNSt3__16vectorIiNS_9allocatorIiEEE16__destroy_vectorclB7v160006Ev, symObjAddr: 0x37F0, symBinAddr: 0x100006FA4, symSize: 0x9C }
  - { offsetInCU: 0x10389, offset: 0x10389, size: 0x8, addend: 0x0, symName: __ZNSt3__16vectorIiNS_9allocatorIiEEE16__destroy_vectorC2ERS3_, symObjAddr: 0x388C, symBinAddr: 0x100007040, symSize: 0x20 }
  - { offsetInCU: 0x103C2, offset: 0x103C2, size: 0x8, addend: 0x0, symName: __ZNKSt3__16vectorIiNS_9allocatorIiEEE17__annotate_deleteB7v160006Ev, symObjAddr: 0x38AC, symBinAddr: 0x100007060, symSize: 0xB8 }
  - { offsetInCU: 0x103E8, offset: 0x103E8, size: 0x8, addend: 0x0, symName: __ZNSt3__16vectorIiNS_9allocatorIiEEE7__clearB7v160006Ev, symObjAddr: 0x3974, symBinAddr: 0x100007128, symSize: 0x28 }
  - { offsetInCU: 0x1040E, offset: 0x1040E, size: 0x8, addend: 0x0, symName: __ZNSt3__116allocator_traitsINS_9allocatorIiEEE10deallocateB7v160006ERS2_Pim, symObjAddr: 0x399C, symBinAddr: 0x100007150, symSize: 0x34 }
  - { offsetInCU: 0x10450, offset: 0x10450, size: 0x8, addend: 0x0, symName: __ZNSt3__16vectorIiNS_9allocatorIiEEE7__allocB7v160006Ev, symObjAddr: 0x39D0, symBinAddr: 0x100007184, symSize: 0x28 }
  - { offsetInCU: 0x10476, offset: 0x10476, size: 0x8, addend: 0x0, symName: __ZNKSt3__16vectorIiNS_9allocatorIiEEE8capacityB7v160006Ev, symObjAddr: 0x39F8, symBinAddr: 0x1000071AC, symSize: 0x40 }
  - { offsetInCU: 0x1049C, offset: 0x1049C, size: 0x8, addend: 0x0, symName: __ZNKSt3__16vectorIiNS_9allocatorIiEEE31__annotate_contiguous_containerB7v160006EPKvS5_S5_S5_, symObjAddr: 0x3A38, symBinAddr: 0x1000071EC, symSize: 0x20 }
  - { offsetInCU: 0x104EE, offset: 0x104EE, size: 0x8, addend: 0x0, symName: __ZNKSt3__16vectorIiNS_9allocatorIiEEE4dataB7v160006Ev, symObjAddr: 0x3A58, symBinAddr: 0x10000720C, symSize: 0x28 }
  - { offsetInCU: 0x10514, offset: 0x10514, size: 0x8, addend: 0x0, symName: __ZNSt3__16vectorIiNS_9allocatorIiEEE22__base_destruct_at_endB7v160006EPi, symObjAddr: 0x3A94, symBinAddr: 0x100007248, symSize: 0xA0 }
  - { offsetInCU: 0x10558, offset: 0x10558, size: 0x8, addend: 0x0, symName: __ZNSt3__116allocator_traitsINS_9allocatorIiEEE7destroyB7v160006IivEEvRS2_PT_, symObjAddr: 0x3B34, symBinAddr: 0x1000072E8, symSize: 0x2C }
  - { offsetInCU: 0x10595, offset: 0x10595, size: 0x8, addend: 0x0, symName: __ZNSt3__19allocatorIiE7destroyB7v160006EPi, symObjAddr: 0x3B60, symBinAddr: 0x100007314, symSize: 0x14 }
  - { offsetInCU: 0x105C9, offset: 0x105C9, size: 0x8, addend: 0x0, symName: __ZNSt3__19allocatorIiE10deallocateB7v160006EPim, symObjAddr: 0x3B74, symBinAddr: 0x100007328, symSize: 0x70 }
  - { offsetInCU: 0x1060B, offset: 0x1060B, size: 0x8, addend: 0x0, symName: __ZNSt3__117__compressed_pairIPiNS_9allocatorIiEEE6secondB7v160006Ev, symObjAddr: 0x3BE4, symBinAddr: 0x100007398, symSize: 0x24 }
  - { offsetInCU: 0x10631, offset: 0x10631, size: 0x8, addend: 0x0, symName: __ZNSt3__122__compressed_pair_elemINS_9allocatorIiEELi1ELb1EE5__getB7v160006Ev, symObjAddr: 0x3C08, symBinAddr: 0x1000073BC, symSize: 0x14 }
  - { offsetInCU: 0x10657, offset: 0x10657, size: 0x8, addend: 0x0, symName: __ZNKSt3__16vectorIiNS_9allocatorIiEEE9__end_capB7v160006Ev, symObjAddr: 0x3C1C, symBinAddr: 0x1000073D0, symSize: 0x28 }
  - { offsetInCU: 0x1067D, offset: 0x1067D, size: 0x8, addend: 0x0, symName: __ZNKSt3__117__compressed_pairIPiNS_9allocatorIiEEE5firstB7v160006Ev, symObjAddr: 0x3C44, symBinAddr: 0x1000073F8, symSize: 0x24 }
  - { offsetInCU: 0x106A3, offset: 0x106A3, size: 0x8, addend: 0x0, symName: __ZNKSt3__122__compressed_pair_elemIPiLi0ELb0EE5__getB7v160006Ev, symObjAddr: 0x3C68, symBinAddr: 0x10000741C, symSize: 0x14 }
  - { offsetInCU: 0x106C9, offset: 0x106C9, size: 0x8, addend: 0x0, symName: __ZNSt3__16vectorIiNS_9allocatorIiEEE9__end_capB7v160006Ev, symObjAddr: 0x3C7C, symBinAddr: 0x100007430, symSize: 0x28 }
  - { offsetInCU: 0x106EF, offset: 0x106EF, size: 0x8, addend: 0x0, symName: __ZNSt3__16vectorIiNS_9allocatorIiEEE22__construct_one_at_endB7v160006IJRKiEEEvDpOT_, symObjAddr: 0x3CA4, symBinAddr: 0x100007458, symSize: 0x98 }
  - { offsetInCU: 0x1073E, offset: 0x1073E, size: 0x8, addend: 0x0, symName: __ZNSt3__16vectorIiNS_9allocatorIiEEE21__push_back_slow_pathIRKiEEvOT_, symObjAddr: 0x3D3C, symBinAddr: 0x1000074F0, symSize: 0xE0 }
  - { offsetInCU: 0x1079C, offset: 0x1079C, size: 0x8, addend: 0x0, symName: __ZNSt3__117__compressed_pairIPiNS_9allocatorIiEEE5firstB7v160006Ev, symObjAddr: 0x3E1C, symBinAddr: 0x1000075D0, symSize: 0x24 }
  - { offsetInCU: 0x107C2, offset: 0x107C2, size: 0x8, addend: 0x0, symName: __ZNSt3__122__compressed_pair_elemIPiLi0ELb0EE5__getB7v160006Ev, symObjAddr: 0x3E40, symBinAddr: 0x1000075F4, symSize: 0x14 }
  - { offsetInCU: 0x10801, offset: 0x10801, size: 0x8, addend: 0x0, symName: __ZNSt3__16vectorIiNS_9allocatorIiEEE21_ConstructTransactionC1B7v160006ERS3_m, symObjAddr: 0x3E54, symBinAddr: 0x100007608, symSize: 0x3C }
  - { offsetInCU: 0x10849, offset: 0x10849, size: 0x8, addend: 0x0, symName: __ZNSt3__116allocator_traitsINS_9allocatorIiEEE9constructB7v160006IiJRKiEvEEvRS2_PT_DpOT0_, symObjAddr: 0x3E90, symBinAddr: 0x100007644, symSize: 0x34 }
  - { offsetInCU: 0x108A0, offset: 0x108A0, size: 0x8, addend: 0x0, symName: __ZNSt3__16vectorIiNS_9allocatorIiEEE21_ConstructTransactionD1B7v160006Ev, symObjAddr: 0x3EC4, symBinAddr: 0x100007678, symSize: 0x2C }
  - { offsetInCU: 0x108CA, offset: 0x108CA, size: 0x8, addend: 0x0, symName: __ZNSt3__16vectorIiNS_9allocatorIiEEE21_ConstructTransactionC2B7v160006ERS3_m, symObjAddr: 0x3EF0, symBinAddr: 0x1000076A4, symSize: 0x44 }
  - { offsetInCU: 0x10912, offset: 0x10912, size: 0x8, addend: 0x0, symName: __ZNSt3__19allocatorIiE9constructB7v160006IiJRKiEEEvPT_DpOT0_, symObjAddr: 0x3F34, symBinAddr: 0x1000076E8, symSize: 0x28 }
  - { offsetInCU: 0x10968, offset: 0x10968, size: 0x8, addend: 0x0, symName: __ZNSt3__16vectorIiNS_9allocatorIiEEE21_ConstructTransactionD2B7v160006Ev, symObjAddr: 0x3F5C, symBinAddr: 0x100007710, symSize: 0x20 }
  - { offsetInCU: 0x10992, offset: 0x10992, size: 0x8, addend: 0x0, symName: __ZNKSt3__16vectorIiNS_9allocatorIiEEE11__recommendB7v160006Em, symObjAddr: 0x3F7C, symBinAddr: 0x100007730, symSize: 0xB4 }
  - { offsetInCU: 0x109E7, offset: 0x109E7, size: 0x8, addend: 0x0, symName: __ZNSt3__114__split_bufferIiRNS_9allocatorIiEEEC1EmmS3_, symObjAddr: 0x4030, symBinAddr: 0x1000077E4, symSize: 0x44 }
  - { offsetInCU: 0x10A3D, offset: 0x10A3D, size: 0x8, addend: 0x0, symName: __ZNSt3__114__split_bufferIiRNS_9allocatorIiEEED1Ev, symObjAddr: 0x418C, symBinAddr: 0x100007940, symSize: 0x2C }
  - { offsetInCU: 0x10A69, offset: 0x10A69, size: 0x8, addend: 0x0, symName: __ZNKSt3__16vectorIiNS_9allocatorIiEEE8max_sizeEv, symObjAddr: 0x41B8, symBinAddr: 0x10000796C, symSize: 0x74 }
  - { offsetInCU: 0x10A91, offset: 0x10A91, size: 0x8, addend: 0x0, symName: __ZNKSt3__16vectorIiNS_9allocatorIiEEE20__throw_length_errorB7v160006Ev, symObjAddr: 0x422C, symBinAddr: 0x1000079E0, symSize: 0x1C }
  - { offsetInCU: 0x10AC1, offset: 0x10AC1, size: 0x8, addend: 0x0, symName: __ZNSt3__116allocator_traitsINS_9allocatorIiEEE8max_sizeB7v160006IS2_vEEmRKS2_, symObjAddr: 0x4248, symBinAddr: 0x1000079FC, symSize: 0x24 }
  - { offsetInCU: 0x10AEF, offset: 0x10AEF, size: 0x8, addend: 0x0, symName: __ZNKSt3__16vectorIiNS_9allocatorIiEEE7__allocB7v160006Ev, symObjAddr: 0x426C, symBinAddr: 0x100007A20, symSize: 0x28 }
  - { offsetInCU: 0x10B15, offset: 0x10B15, size: 0x8, addend: 0x0, symName: __ZNKSt3__19allocatorIiE8max_sizeB7v160006Ev, symObjAddr: 0x4294, symBinAddr: 0x100007A48, symSize: 0x14 }
  - { offsetInCU: 0x10B3B, offset: 0x10B3B, size: 0x8, addend: 0x0, symName: __ZNKSt3__117__compressed_pairIPiNS_9allocatorIiEEE6secondB7v160006Ev, symObjAddr: 0x42A8, symBinAddr: 0x100007A5C, symSize: 0x24 }
  - { offsetInCU: 0x10B61, offset: 0x10B61, size: 0x8, addend: 0x0, symName: __ZNKSt3__122__compressed_pair_elemINS_9allocatorIiEELi1ELb1EE5__getB7v160006Ev, symObjAddr: 0x42CC, symBinAddr: 0x100007A80, symSize: 0x14 }
  - { offsetInCU: 0x10B87, offset: 0x10B87, size: 0x8, addend: 0x0, symName: __ZNSt3__114__split_bufferIiRNS_9allocatorIiEEEC2EmmS3_, symObjAddr: 0x42E0, symBinAddr: 0x100007A94, symSize: 0xD4 }
  - { offsetInCU: 0x10BFA, offset: 0x10BFA, size: 0x8, addend: 0x0, symName: __ZNSt3__117__compressed_pairIPiRNS_9allocatorIiEEEC1B7v160006IDnS4_EEOT_OT0_, symObjAddr: 0x43B4, symBinAddr: 0x100007B68, symSize: 0x3C }
  - { offsetInCU: 0x10C52, offset: 0x10C52, size: 0x8, addend: 0x0, symName: __ZNSt3__114__split_bufferIiRNS_9allocatorIiEEE7__allocB7v160006Ev, symObjAddr: 0x4430, symBinAddr: 0x100007BE4, symSize: 0x28 }
  - { offsetInCU: 0x10C78, offset: 0x10C78, size: 0x8, addend: 0x0, symName: __ZNSt3__114__split_bufferIiRNS_9allocatorIiEEE9__end_capB7v160006Ev, symObjAddr: 0x4458, symBinAddr: 0x100007C0C, symSize: 0x28 }
  - { offsetInCU: 0x10C9E, offset: 0x10C9E, size: 0x8, addend: 0x0, symName: __ZNSt3__117__compressed_pairIPiRNS_9allocatorIiEEEC2B7v160006IDnS4_EEOT_OT0_, symObjAddr: 0x4480, symBinAddr: 0x100007C34, symSize: 0x48 }
  - { offsetInCU: 0x10CF6, offset: 0x10CF6, size: 0x8, addend: 0x0, symName: __ZNSt3__122__compressed_pair_elemIRNS_9allocatorIiEELi1ELb0EEC2B7v160006IS3_vEEOT_, symObjAddr: 0x44C8, symBinAddr: 0x100007C7C, symSize: 0x20 }
  - { offsetInCU: 0x10D38, offset: 0x10D38, size: 0x8, addend: 0x0, symName: __ZNSt3__19allocatorIiE8allocateB7v160006Em, symObjAddr: 0x44E8, symBinAddr: 0x100007C9C, symSize: 0x84 }
  - { offsetInCU: 0x10D6C, offset: 0x10D6C, size: 0x8, addend: 0x0, symName: __ZNSt3__117__compressed_pairIPiRNS_9allocatorIiEEE6secondB7v160006Ev, symObjAddr: 0x456C, symBinAddr: 0x100007D20, symSize: 0x28 }
  - { offsetInCU: 0x10D92, offset: 0x10D92, size: 0x8, addend: 0x0, symName: __ZNSt3__122__compressed_pair_elemIRNS_9allocatorIiEELi1ELb0EE5__getB7v160006Ev, symObjAddr: 0x4594, symBinAddr: 0x100007D48, symSize: 0x18 }
  - { offsetInCU: 0x10DB8, offset: 0x10DB8, size: 0x8, addend: 0x0, symName: __ZNSt3__117__compressed_pairIPiRNS_9allocatorIiEEE5firstB7v160006Ev, symObjAddr: 0x45AC, symBinAddr: 0x100007D60, symSize: 0x24 }
  - { offsetInCU: 0x10DDE, offset: 0x10DDE, size: 0x8, addend: 0x0, symName: __ZNSt3__116reverse_iteratorIPiEC1B7v160006ES1_, symObjAddr: 0x46B8, symBinAddr: 0x100007E6C, symSize: 0x34 }
  - { offsetInCU: 0x10E16, offset: 0x10E16, size: 0x8, addend: 0x0, symName: __ZNKSt3__116reverse_iteratorIPiE4baseB7v160006Ev, symObjAddr: 0x46EC, symBinAddr: 0x100007EA0, symSize: 0x18 }
  - { offsetInCU: 0x10E3C, offset: 0x10E3C, size: 0x8, addend: 0x0, symName: __ZNKSt3__16vectorIiNS_9allocatorIiEEE14__annotate_newB7v160006Em, symObjAddr: 0x4740, symBinAddr: 0x100007EF4, symSize: 0xAC }
  - { offsetInCU: 0x10E71, offset: 0x10E71, size: 0x8, addend: 0x0, symName: __ZNKSt3__116reverse_iteratorIPiEdeB7v160006Ev, symObjAddr: 0x4894, symBinAddr: 0x100008048, symSize: 0x28 }
  - { offsetInCU: 0x10EA5, offset: 0x10EA5, size: 0x8, addend: 0x0, symName: __ZNSt3__116reverse_iteratorIPiEppB7v160006Ev, symObjAddr: 0x48BC, symBinAddr: 0x100008070, symSize: 0x20 }
  - { offsetInCU: 0x10ED0, offset: 0x10ED0, size: 0x8, addend: 0x0, symName: __ZNSt3__119__to_address_helperINS_16reverse_iteratorIPiEEvE6__callB7v160006ERKS3_, symObjAddr: 0x4954, symBinAddr: 0x100008108, symSize: 0x4C }
  - { offsetInCU: 0x10EF3, offset: 0x10EF3, size: 0x8, addend: 0x0, symName: __ZNKSt3__116reverse_iteratorIPiEptB7v160006Ev, symObjAddr: 0x49A0, symBinAddr: 0x100008154, symSize: 0x24 }
  - { offsetInCU: 0x10F33, offset: 0x10F33, size: 0x8, addend: 0x0, symName: __ZNKSt3__111__move_loopINS_17_ClassicAlgPolicyEEclB7v160006INS_16reverse_iteratorIPiEES6_S6_EENS_4pairIT_T1_EES8_T0_S9_, symObjAddr: 0x4C54, symBinAddr: 0x100008408, symSize: 0xA0 }
  - { offsetInCU: 0x10FA4, offset: 0x10FA4, size: 0x8, addend: 0x0, symName: __ZNSt3__18_IterOpsINS_17_ClassicAlgPolicyEE11__iter_moveB7v160006IRNS_16reverse_iteratorIPiEEEENS_9enable_ifIXsr12is_referenceIDTdeclsr3stdE7declvalIRT_EEEEE5valueEDTclsr3stdE4movedeclsr3stdE7declvalISA_EEEEE4typeEOS9_, symObjAddr: 0x4E54, symBinAddr: 0x100008608, symSize: 0x28 }
  - { offsetInCU: 0x10FD0, offset: 0x10FD0, size: 0x8, addend: 0x0, symName: __ZNSt3__18_IterOpsINS_17_ClassicAlgPolicyEE25__validate_iter_referenceB7v160006IRNS_16reverse_iteratorIPiEEEEvv, symObjAddr: 0x4E7C, symBinAddr: 0x100008630, symSize: 0x4 }
  - { offsetInCU: 0x10FEE, offset: 0x10FEE, size: 0x8, addend: 0x0, symName: __ZNSt3__118__unwrap_iter_implINS_16reverse_iteratorIPiEELb0EE8__unwrapB7v160006ES3_, symObjAddr: 0x4E80, symBinAddr: 0x100008634, symSize: 0x24 }
  - { offsetInCU: 0x11011, offset: 0x11011, size: 0x8, addend: 0x0, symName: __ZNSt3__14pairINS_16reverse_iteratorIPiEES3_EC1B7v160006ERKS3_S6_, symObjAddr: 0x4EA4, symBinAddr: 0x100008658, symSize: 0x3C }
  - { offsetInCU: 0x11057, offset: 0x11057, size: 0x8, addend: 0x0, symName: __ZNSt3__14pairINS_16reverse_iteratorIPiEES3_EC2B7v160006ERKS3_S6_, symObjAddr: 0x4EE0, symBinAddr: 0x100008694, symSize: 0x34 }
  - { offsetInCU: 0x1109D, offset: 0x1109D, size: 0x8, addend: 0x0, symName: __ZNSt3__118__unwrap_iter_implINS_16reverse_iteratorIPiEELb0EE8__rewrapB7v160006ES3_S3_, symObjAddr: 0x4F14, symBinAddr: 0x1000086C8, symSize: 0x2C }
  - { offsetInCU: 0x110CB, offset: 0x110CB, size: 0x8, addend: 0x0, symName: __ZNSt3__116reverse_iteratorIPiEC2B7v160006ES1_, symObjAddr: 0x4F40, symBinAddr: 0x1000086F4, symSize: 0x28 }
  - { offsetInCU: 0x11103, offset: 0x11103, size: 0x8, addend: 0x0, symName: __ZNSt3__114__split_bufferIiRNS_9allocatorIiEEED2Ev, symObjAddr: 0x4F68, symBinAddr: 0x10000871C, symSize: 0x80 }
  - { offsetInCU: 0x1112F, offset: 0x1112F, size: 0x8, addend: 0x0, symName: __ZNSt3__114__split_bufferIiRNS_9allocatorIiEEE5clearB7v160006Ev, symObjAddr: 0x4FE8, symBinAddr: 0x10000879C, symSize: 0x28 }
  - { offsetInCU: 0x11155, offset: 0x11155, size: 0x8, addend: 0x0, symName: __ZNKSt3__114__split_bufferIiRNS_9allocatorIiEEE8capacityB7v160006Ev, symObjAddr: 0x5010, symBinAddr: 0x1000087C4, symSize: 0x40 }
  - { offsetInCU: 0x1117B, offset: 0x1117B, size: 0x8, addend: 0x0, symName: __ZNSt3__114__split_bufferIiRNS_9allocatorIiEEE17__destruct_at_endB7v160006EPi, symObjAddr: 0x5050, symBinAddr: 0x100008804, symSize: 0x2C }
  - { offsetInCU: 0x111AF, offset: 0x111AF, size: 0x8, addend: 0x0, symName: __ZNSt3__114__split_bufferIiRNS_9allocatorIiEEE17__destruct_at_endB7v160006EPiNS_17integral_constantIbLb0EEE, symObjAddr: 0x507C, symBinAddr: 0x100008830, symSize: 0x94 }
  - { offsetInCU: 0x111F0, offset: 0x111F0, size: 0x8, addend: 0x0, symName: __ZNKSt3__114__split_bufferIiRNS_9allocatorIiEEE9__end_capB7v160006Ev, symObjAddr: 0x5110, symBinAddr: 0x1000088C4, symSize: 0x28 }
  - { offsetInCU: 0x11216, offset: 0x11216, size: 0x8, addend: 0x0, symName: __ZNKSt3__117__compressed_pairIPiRNS_9allocatorIiEEE5firstB7v160006Ev, symObjAddr: 0x5138, symBinAddr: 0x1000088EC, symSize: 0x24 }
  - { offsetInCU: 0x1123C, offset: 0x1123C, size: 0x8, addend: 0x0, symName: __ZNSt3__112basic_stringIcNS_11char_traitsIcEENS_9allocatorIcEEEC2B7v160006IDnEEPKc, symObjAddr: 0x515C, symBinAddr: 0x100008910, symSize: 0x60 }
  - { offsetInCU: 0x1127A, offset: 0x1127A, size: 0x8, addend: 0x0, symName: __ZNSt3__117__compressed_pairINS_12basic_stringIcNS_11char_traitsIcEENS_9allocatorIcEEE5__repES5_EC1B7v160006INS_18__default_init_tagESA_EEOT_OT0_, symObjAddr: 0x51BC, symBinAddr: 0x100008970, symSize: 0x3C }
  - { offsetInCU: 0x112D2, offset: 0x112D2, size: 0x8, addend: 0x0, symName: __ZNSt3__111char_traitsIcE6lengthEPKc, symObjAddr: 0x51F8, symBinAddr: 0x1000089AC, symSize: 0x48 }
  - { offsetInCU: 0x112F5, offset: 0x112F5, size: 0x8, addend: 0x0, symName: __ZNSt3__117__compressed_pairINS_12basic_stringIcNS_11char_traitsIcEENS_9allocatorIcEEE5__repES5_EC2B7v160006INS_18__default_init_tagESA_EEOT_OT0_, symObjAddr: 0x5250, symBinAddr: 0x100008A04, symSize: 0x3C }
  - { offsetInCU: 0x1134D, offset: 0x1134D, size: 0x8, addend: 0x0, symName: __ZNSt3__122__compressed_pair_elemINS_12basic_stringIcNS_11char_traitsIcEENS_9allocatorIcEEE5__repELi0ELb0EEC2B7v160006ENS_18__default_init_tagE, symObjAddr: 0x528C, symBinAddr: 0x100008A40, symSize: 0x14 }
  - { offsetInCU: 0x11382, offset: 0x11382, size: 0x8, addend: 0x0, symName: __ZNSt3__122__compressed_pair_elemINS_9allocatorIcEELi1ELb1EEC2B7v160006ENS_18__default_init_tagE, symObjAddr: 0x52A0, symBinAddr: 0x100008A54, symSize: 0x2C }
  - { offsetInCU: 0x113B7, offset: 0x113B7, size: 0x8, addend: 0x0, symName: __ZNSt3__19allocatorIcEC2B7v160006Ev, symObjAddr: 0x52CC, symBinAddr: 0x100008A80, symSize: 0x2C }
  - { offsetInCU: 0x113E1, offset: 0x113E1, size: 0x8, addend: 0x0, symName: __ZNSt3__116__non_trivial_ifILb1ENS_9allocatorIcEEEC2B7v160006Ev, symObjAddr: 0x52F8, symBinAddr: 0x100008AAC, symSize: 0x14 }
  - { offsetInCU: 0x1140B, offset: 0x1140B, size: 0x8, addend: 0x0, symName: __ZNSt3__123mersenne_twister_engineIjLm32ELm624ELm397ELm31ELj2567483615ELm11ELj4294967295ELm7ELj2636928640ELm15ELj4022730752ELm18ELj1812433253EEC2B7v160006Ej, symObjAddr: 0x5330, symBinAddr: 0x100008AE4, symSize: 0x34 }
  - { offsetInCU: 0x11443, offset: 0x11443, size: 0x8, addend: 0x0, symName: __ZNSt3__123mersenne_twister_engineIjLm32ELm624ELm397ELm31ELj2567483615ELm11ELj4294967295ELm7ELj2636928640ELm15ELj4022730752ELm18ELj1812433253EE4seedEj, symObjAddr: 0x5364, symBinAddr: 0x100008B18, symSize: 0xC4 }
  - { offsetInCU: 0x11496, offset: 0x11496, size: 0x8, addend: 0x0, symName: __ZNSt3__123mersenne_twister_engineIjLm32ELm624ELm397ELm31ELj2567483615ELm11ELj4294967295ELm7ELj2636928640ELm15ELj4022730752ELm18ELj1812433253EE8__rshiftB7v160006ILm30EEENS_9enable_ifIXltT_L_ZNS1_3_DtEEEjE4typeEj, symObjAddr: 0x5428, symBinAddr: 0x100008BDC, symSize: 0x18 }
  - { offsetInCU: 0x114C3, offset: 0x114C3, size: 0x8, addend: 0x0, symName: __ZNSt3__16vectorIiNS_9allocatorIiEEE11__make_iterB7v160006EPi, symObjAddr: 0x5440, symBinAddr: 0x100008BF4, symSize: 0x34 }
  - { offsetInCU: 0x114F8, offset: 0x114F8, size: 0x8, addend: 0x0, symName: __ZNSt3__111__wrap_iterIPiEC1B7v160006EPKvS1_, symObjAddr: 0x5474, symBinAddr: 0x100008C28, symSize: 0x3C }
  - { offsetInCU: 0x1153E, offset: 0x1153E, size: 0x8, addend: 0x0, symName: __ZNSt3__111__wrap_iterIPiEC2B7v160006EPKvS1_, symObjAddr: 0x54B0, symBinAddr: 0x100008C64, symSize: 0x24 }
  - { offsetInCU: 0x11584, offset: 0x11584, size: 0x8, addend: 0x0, symName: __ZNSt3__18_IterOpsINS_17_ClassicAlgPolicyEE4nextB7v160006INS_11__wrap_iterIPiEEEET_S7_S7_, symObjAddr: 0x561C, symBinAddr: 0x100008DD0, symSize: 0x20 }
  - { offsetInCU: 0x115BB, offset: 0x115BB, size: 0x8, addend: 0x0, symName: __ZNSt3__124uniform_int_distributionIlEC1Ell, symObjAddr: 0x5684, symBinAddr: 0x100008E38, symSize: 0x3C }
  - { offsetInCU: 0x11601, offset: 0x11601, size: 0x8, addend: 0x0, symName: __ZNSt3__111__wrap_iterIPiEmmB7v160006Ev, symObjAddr: 0x56C0, symBinAddr: 0x100008E74, symSize: 0x20 }
  - { offsetInCU: 0x11627, offset: 0x11627, size: 0x8, addend: 0x0, symName: __ZNSt3__124uniform_int_distributionIlE10param_typeC1Ell, symObjAddr: 0x589C, symBinAddr: 0x100009050, symSize: 0x3C }
  - { offsetInCU: 0x11673, offset: 0x11673, size: 0x8, addend: 0x0, symName: __ZNSt3__18_IterOpsINS_17_ClassicAlgPolicyEE9iter_swapB7v160006IRNS_11__wrap_iterIPiEES6_EEvOT_OT0_, symObjAddr: 0x58D8, symBinAddr: 0x10000908C, symSize: 0x44 }
  - { offsetInCU: 0x116B6, offset: 0x116B6, size: 0x8, addend: 0x0, symName: __ZNKSt3__111__wrap_iterIPiEplB7v160006El, symObjAddr: 0x591C, symBinAddr: 0x1000090D0, symSize: 0x3C }
  - { offsetInCU: 0x116F8, offset: 0x116F8, size: 0x8, addend: 0x0, symName: __ZNSt3__111__wrap_iterIPiEppB7v160006Ev, symObjAddr: 0x5958, symBinAddr: 0x10000910C, symSize: 0x20 }
  - { offsetInCU: 0x1171E, offset: 0x1171E, size: 0x8, addend: 0x0, symName: __ZNKSt3__111__wrap_iterIPiE4baseB7v160006Ev, symObjAddr: 0x5978, symBinAddr: 0x10000912C, symSize: 0x18 }
  - { offsetInCU: 0x11744, offset: 0x11744, size: 0x8, addend: 0x0, symName: __ZNSt3__124uniform_int_distributionIlEC2Ell, symObjAddr: 0x5990, symBinAddr: 0x100009144, symSize: 0x3C }
  - { offsetInCU: 0x1178A, offset: 0x1178A, size: 0x8, addend: 0x0, symName: __ZNKSt3__124uniform_int_distributionIlE10param_type1bEv, symObjAddr: 0x59CC, symBinAddr: 0x100009180, symSize: 0x18 }
  - { offsetInCU: 0x117B0, offset: 0x117B0, size: 0x8, addend: 0x0, symName: __ZNKSt3__124uniform_int_distributionIlE10param_type1aEv, symObjAddr: 0x59E4, symBinAddr: 0x100009198, symSize: 0x18 }
  - { offsetInCU: 0x117D6, offset: 0x117D6, size: 0x8, addend: 0x0, symName: __ZNSt3__125__independent_bits_engineINS_23mersenne_twister_engineIjLm32ELm624ELm397ELm31ELj2567483615ELm11ELj4294967295ELm7ELj2636928640ELm15ELj4022730752ELm18ELj1812433253EEEmEC1ERS2_m, symObjAddr: 0x59FC, symBinAddr: 0x1000091B0, symSize: 0x3C }
  - { offsetInCU: 0x1181D, offset: 0x1181D, size: 0x8, addend: 0x0, symName: __ZNSt3__125__independent_bits_engineINS_23mersenne_twister_engineIjLm32ELm624ELm397ELm31ELj2567483615ELm11ELj4294967295ELm7ELj2636928640ELm15ELj4022730752ELm18ELj1812433253EEEmEclEv, symObjAddr: 0x5A38, symBinAddr: 0x1000091EC, symSize: 0x24 }
  - { offsetInCU: 0x11843, offset: 0x11843, size: 0x8, addend: 0x0, symName: __ZNSt3__114numeric_limitsImE3maxB7v160006Ev, symObjAddr: 0x5AB0, symBinAddr: 0x100009264, symSize: 0x14 }
  - { offsetInCU: 0x11857, offset: 0x11857, size: 0x8, addend: 0x0, symName: __ZNSt3__125__independent_bits_engineINS_23mersenne_twister_engineIjLm32ELm624ELm397ELm31ELj2567483615ELm11ELj4294967295ELm7ELj2636928640ELm15ELj4022730752ELm18ELj1812433253EEEmEC2ERS2_m, symObjAddr: 0x5AC4, symBinAddr: 0x100009278, symSize: 0x264 }
  - { offsetInCU: 0x1189E, offset: 0x1189E, size: 0x8, addend: 0x0, symName: __ZNSt3__125__independent_bits_engineINS_23mersenne_twister_engineIjLm32ELm624ELm397ELm31ELj2567483615ELm11ELj4294967295ELm7ELj2636928640ELm15ELj4022730752ELm18ELj1812433253EEEmE6__evalENS_17integral_constantIbLb1EEE, symObjAddr: 0x5D28, symBinAddr: 0x1000094DC, symSize: 0x1F0 }
  - { offsetInCU: 0x1195C, offset: 0x1195C, size: 0x8, addend: 0x0, symName: __ZNSt3__123mersenne_twister_engineIjLm32ELm624ELm397ELm31ELj2567483615ELm11ELj4294967295ELm7ELj2636928640ELm15ELj4022730752ELm18ELj1812433253EEclEv, symObjAddr: 0x5F18, symBinAddr: 0x1000096CC, symSize: 0x14C }
  - { offsetInCU: 0x119CF, offset: 0x119CF, size: 0x8, addend: 0x0, symName: __ZNSt3__123mersenne_twister_engineIjLm32ELm624ELm397ELm31ELj2567483615ELm11ELj4294967295ELm7ELj2636928640ELm15ELj4022730752ELm18ELj1812433253EE3minB7v160006Ev, symObjAddr: 0x6064, symBinAddr: 0x100009818, symSize: 0x8 }
  - { offsetInCU: 0x119E3, offset: 0x119E3, size: 0x8, addend: 0x0, symName: __ZNSt3__123mersenne_twister_engineIjLm32ELm624ELm397ELm31ELj2567483615ELm11ELj4294967295ELm7ELj2636928640ELm15ELj4022730752ELm18ELj1812433253EE8__rshiftB7v160006ILm1EEENS_9enable_ifIXltT_L_ZNS1_3_DtEEEjE4typeEj, symObjAddr: 0x606C, symBinAddr: 0x100009820, symSize: 0x18 }
  - { offsetInCU: 0x11A10, offset: 0x11A10, size: 0x8, addend: 0x0, symName: __ZNSt3__123mersenne_twister_engineIjLm32ELm624ELm397ELm31ELj2567483615ELm11ELj4294967295ELm7ELj2636928640ELm15ELj4022730752ELm18ELj1812433253EE8__rshiftB7v160006ILm11EEENS_9enable_ifIXltT_L_ZNS1_3_DtEEEjE4typeEj, symObjAddr: 0x6084, symBinAddr: 0x100009838, symSize: 0x18 }
  - { offsetInCU: 0x11A3D, offset: 0x11A3D, size: 0x8, addend: 0x0, symName: __ZNSt3__123mersenne_twister_engineIjLm32ELm624ELm397ELm31ELj2567483615ELm11ELj4294967295ELm7ELj2636928640ELm15ELj4022730752ELm18ELj1812433253EE8__lshiftB7v160006ILm7EEENS_9enable_ifIXltT_Lm32EEjE4typeEj, symObjAddr: 0x609C, symBinAddr: 0x100009850, symSize: 0x1C }
  - { offsetInCU: 0x11A6A, offset: 0x11A6A, size: 0x8, addend: 0x0, symName: __ZNSt3__123mersenne_twister_engineIjLm32ELm624ELm397ELm31ELj2567483615ELm11ELj4294967295ELm7ELj2636928640ELm15ELj4022730752ELm18ELj1812433253EE8__lshiftB7v160006ILm15EEENS_9enable_ifIXltT_Lm32EEjE4typeEj, symObjAddr: 0x60B8, symBinAddr: 0x10000986C, symSize: 0x1C }
  - { offsetInCU: 0x11A97, offset: 0x11A97, size: 0x8, addend: 0x0, symName: __ZNSt3__123mersenne_twister_engineIjLm32ELm624ELm397ELm31ELj2567483615ELm11ELj4294967295ELm7ELj2636928640ELm15ELj4022730752ELm18ELj1812433253EE8__rshiftB7v160006ILm18EEENS_9enable_ifIXltT_L_ZNS1_3_DtEEEjE4typeEj, symObjAddr: 0x60D4, symBinAddr: 0x100009888, symSize: 0x18 }
  - { offsetInCU: 0x11AC4, offset: 0x11AC4, size: 0x8, addend: 0x0, symName: __ZNSt3__123__libcpp_numeric_limitsImLb1EE3maxB7v160006Ev, symObjAddr: 0x6108, symBinAddr: 0x1000098BC, symSize: 0x8 }
  - { offsetInCU: 0x11AD8, offset: 0x11AD8, size: 0x8, addend: 0x0, symName: __ZNSt3__124uniform_int_distributionIlE10param_typeC2Ell, symObjAddr: 0x6110, symBinAddr: 0x1000098C4, symSize: 0x2C }
  - { offsetInCU: 0x11B1E, offset: 0x11B1E, size: 0x8, addend: 0x0, symName: __ZNKSt3__111__wrap_iterIPiEdeB7v160006Ev, symObjAddr: 0x61C8, symBinAddr: 0x10000997C, symSize: 0x18 }
  - { offsetInCU: 0x11B44, offset: 0x11B44, size: 0x8, addend: 0x0, symName: __ZNSt3__111__wrap_iterIPiEpLB7v160006El, symObjAddr: 0x61E0, symBinAddr: 0x100009994, symSize: 0x28 }
  - { offsetInCU: 0x11B78, offset: 0x11B78, size: 0x8, addend: 0x0, symName: __ZN7AVLNodeIiEC1Ei, symObjAddr: 0x6208, symBinAddr: 0x1000099BC, symSize: 0x34 }
  - { offsetInCU: 0x11BB1, offset: 0x11BB1, size: 0x8, addend: 0x0, symName: __ZN7AVLNodeIiE6insertEi, symObjAddr: 0x623C, symBinAddr: 0x1000099F0, symSize: 0x264 }
  - { offsetInCU: 0x11BF4, offset: 0x11BF4, size: 0x8, addend: 0x0, symName: __ZN7AVLNodeIiEC2Ei, symObjAddr: 0x64A0, symBinAddr: 0x100009C54, symSize: 0x2C }
  - { offsetInCU: 0x11C2D, offset: 0x11C2D, size: 0x8, addend: 0x0, symName: __ZN7AVLNodeIiE14maxChildHeightEv, symObjAddr: 0x64CC, symBinAddr: 0x100009C80, symSize: 0xF8 }
  - { offsetInCU: 0x11C54, offset: 0x11C54, size: 0x8, addend: 0x0, symName: __ZN7AVLNodeIiE5getBFEv, symObjAddr: 0x65C4, symBinAddr: 0x100009D78, symSize: 0xEC }
  - { offsetInCU: 0x11C8B, offset: 0x11C8B, size: 0x8, addend: 0x0, symName: __ZN7AVLNodeIiE10rotateLeftEv, symObjAddr: 0x66B0, symBinAddr: 0x100009E64, symSize: 0x15C }
  - { offsetInCU: 0x11CCE, offset: 0x11CCE, size: 0x8, addend: 0x0, symName: __ZN7AVLNodeIiE11rotateRightEv, symObjAddr: 0x680C, symBinAddr: 0x100009FC0, symSize: 0x15C }
  - { offsetInCU: 0x11D11, offset: 0x11D11, size: 0x8, addend: 0x0, symName: __ZN7AVLNodeIiED1Ev, symObjAddr: 0x6968, symBinAddr: 0x10000A11C, symSize: 0x2C }
  - { offsetInCU: 0x11D3C, offset: 0x11D3C, size: 0x8, addend: 0x0, symName: __ZN7AVLNodeIiED2Ev, symObjAddr: 0x6994, symBinAddr: 0x10000A148, symSize: 0x10C }
  - { offsetInCU: 0x11D85, offset: 0x11D85, size: 0x8, addend: 0x0, symName: __ZNKSt3__16chrono10time_pointINS0_12steady_clockENS0_8durationIxNS_5ratioILl1ELl1000000000EEEEEE16time_since_epochB7v160006Ev, symObjAddr: 0x6B10, symBinAddr: 0x10000A2C4, symSize: 0x20 }
  - { offsetInCU: 0x11DBA, offset: 0x11DBA, size: 0x8, addend: 0x0, symName: __ZNSt3__16chrono8durationIxNS_5ratioILl1ELl1000000000EEEEC1B7v160006IxEERKT_PNS_9enable_ifIXaasr14is_convertibleIS8_xEE5valueooL_ZNS_17integral_constantIbLb0EE5valueEEntsr23treat_as_floating_pointIS6_EE5valueEvE4typeE, symObjAddr: 0x6B30, symBinAddr: 0x10000A2E4, symSize: 0x3C }
  - { offsetInCU: 0x11E06, offset: 0x11E06, size: 0x8, addend: 0x0, symName: __ZNSt3__16chrono8durationIxNS_5ratioILl1ELl1000000000EEEEC2B7v160006IxEERKT_PNS_9enable_ifIXaasr14is_convertibleIS8_xEE5valueooL_ZNS_17integral_constantIbLb0EE5valueEEntsr23treat_as_floating_pointIS6_EE5valueEvE4typeE, symObjAddr: 0x6B6C, symBinAddr: 0x10000A320, symSize: 0x28 }
  - { offsetInCU: 0x11E52, offset: 0x11E52, size: 0x8, addend: 0x0, symName: __ZNSt3__16chrono8durationIxNS_5ratioILl1ELl1000000EEEEC1B7v160006IxEERKT_PNS_9enable_ifIXaasr14is_convertibleIS8_xEE5valueooL_ZNS_17integral_constantIbLb0EE5valueEEntsr23treat_as_floating_pointIS6_EE5valueEvE4typeE, symObjAddr: 0x6BDC, symBinAddr: 0x10000A390, symSize: 0x3C }
  - { offsetInCU: 0x11E9E, offset: 0x11E9E, size: 0x8, addend: 0x0, symName: __ZNSt3__16chrono8durationIxNS_5ratioILl1ELl1000000EEEEC2B7v160006IxEERKT_PNS_9enable_ifIXaasr14is_convertibleIS8_xEE5valueooL_ZNS_17integral_constantIbLb0EE5valueEEntsr23treat_as_floating_pointIS6_EE5valueEvE4typeE, symObjAddr: 0x6C18, symBinAddr: 0x10000A3CC, symSize: 0x28 }
  - { offsetInCU: 0x11F08, offset: 0x11F08, size: 0x8, addend: 0x0, symName: __ZNKSt3__113basic_ostreamIcNS_11char_traitsIcEEE6sentrycvbB7v160006Ev, symObjAddr: 0x6E34, symBinAddr: 0x10000A5E8, symSize: 0x1C }
  - { offsetInCU: 0x11F2E, offset: 0x11F2E, size: 0x8, addend: 0x0, symName: __ZNSt3__119ostreambuf_iteratorIcNS_11char_traitsIcEEEC1B7v160006ERNS_13basic_ostreamIcS2_EE, symObjAddr: 0x7098, symBinAddr: 0x10000A84C, symSize: 0x34 }
  - { offsetInCU: 0x11F66, offset: 0x11F66, size: 0x8, addend: 0x0, symName: __ZNKSt3__18ios_base5flagsB7v160006Ev, symObjAddr: 0x70CC, symBinAddr: 0x10000A880, symSize: 0x18 }
  - { offsetInCU: 0x11F8E, offset: 0x11F8E, size: 0x8, addend: 0x0, symName: __ZNKSt3__19basic_iosIcNS_11char_traitsIcEEE4fillB7v160006Ev, symObjAddr: 0x70E4, symBinAddr: 0x10000A898, symSize: 0x64 }
  - { offsetInCU: 0x11FB6, offset: 0x11FB6, size: 0x8, addend: 0x0, symName: __ZNKSt3__119ostreambuf_iteratorIcNS_11char_traitsIcEEE6failedB7v160006Ev, symObjAddr: 0x7148, symBinAddr: 0x10000A8FC, symSize: 0x24 }
  - { offsetInCU: 0x11FDC, offset: 0x11FDC, size: 0x8, addend: 0x0, symName: __ZNSt3__19basic_iosIcNS_11char_traitsIcEEE8setstateB7v160006Ej, symObjAddr: 0x716C, symBinAddr: 0x10000A920, symSize: 0x2C }
  - { offsetInCU: 0x12011, offset: 0x12011, size: 0x8, addend: 0x0, symName: __ZNKSt3__18ios_base5widthB7v160006Ev, symObjAddr: 0x7198, symBinAddr: 0x10000A94C, symSize: 0x18 }
  - { offsetInCU: 0x12039, offset: 0x12039, size: 0x8, addend: 0x0, symName: __ZNSt3__115basic_streambufIcNS_11char_traitsIcEEE5sputnB7v160006EPKcl, symObjAddr: 0x71B0, symBinAddr: 0x10000A964, symSize: 0x3C }
  - { offsetInCU: 0x1207B, offset: 0x1207B, size: 0x8, addend: 0x0, symName: __ZNSt3__112basic_stringIcNS_11char_traitsIcEENS_9allocatorIcEEEC1B7v160006Emc, symObjAddr: 0x71EC, symBinAddr: 0x10000A9A0, symSize: 0x3C }
  - { offsetInCU: 0x120C3, offset: 0x120C3, size: 0x8, addend: 0x0, symName: __ZNKSt3__112basic_stringIcNS_11char_traitsIcEENS_9allocatorIcEEE4dataB7v160006Ev, symObjAddr: 0x7228, symBinAddr: 0x10000A9DC, symSize: 0x28 }
  - { offsetInCU: 0x120E9, offset: 0x120E9, size: 0x8, addend: 0x0, symName: __ZNSt3__18ios_base5widthB7v160006El, symObjAddr: 0x7250, symBinAddr: 0x10000AA04, symSize: 0x2C }
  - { offsetInCU: 0x1212F, offset: 0x1212F, size: 0x8, addend: 0x0, symName: __ZNSt3__112basic_stringIcNS_11char_traitsIcEENS_9allocatorIcEEEC2B7v160006Emc, symObjAddr: 0x727C, symBinAddr: 0x10000AA30, symSize: 0x54 }
  - { offsetInCU: 0x12177, offset: 0x12177, size: 0x8, addend: 0x0, symName: __ZNKSt3__112basic_stringIcNS_11char_traitsIcEENS_9allocatorIcEEE13__get_pointerB7v160006Ev, symObjAddr: 0x72E4, symBinAddr: 0x10000AA98, symSize: 0x54 }
  - { offsetInCU: 0x1219D, offset: 0x1219D, size: 0x8, addend: 0x0, symName: __ZNKSt3__112basic_stringIcNS_11char_traitsIcEENS_9allocatorIcEEE9__is_longB7v160006Ev, symObjAddr: 0x7338, symBinAddr: 0x10000AAEC, symSize: 0x74 }
  - { offsetInCU: 0x121C3, offset: 0x121C3, size: 0x8, addend: 0x0, symName: __ZNKSt3__112basic_stringIcNS_11char_traitsIcEENS_9allocatorIcEEE18__get_long_pointerB7v160006Ev, symObjAddr: 0x73AC, symBinAddr: 0x10000AB60, symSize: 0x28 }
  - { offsetInCU: 0x121E9, offset: 0x121E9, size: 0x8, addend: 0x0, symName: __ZNKSt3__112basic_stringIcNS_11char_traitsIcEENS_9allocatorIcEEE19__get_short_pointerB7v160006Ev, symObjAddr: 0x73D4, symBinAddr: 0x10000AB88, symSize: 0x28 }
  - { offsetInCU: 0x1220F, offset: 0x1220F, size: 0x8, addend: 0x0, symName: __ZNKSt3__117__compressed_pairINS_12basic_stringIcNS_11char_traitsIcEENS_9allocatorIcEEE5__repES5_E5firstB7v160006Ev, symObjAddr: 0x73FC, symBinAddr: 0x10000ABB0, symSize: 0x24 }
  - { offsetInCU: 0x12235, offset: 0x12235, size: 0x8, addend: 0x0, symName: __ZNKSt3__122__compressed_pair_elemINS_12basic_stringIcNS_11char_traitsIcEENS_9allocatorIcEEE5__repELi0ELb0EE5__getB7v160006Ev, symObjAddr: 0x7420, symBinAddr: 0x10000ABD4, symSize: 0x14 }
  - { offsetInCU: 0x1225B, offset: 0x1225B, size: 0x8, addend: 0x0, symName: __ZNSt3__114pointer_traitsIPKcE10pointer_toB7v160006ERS1_, symObjAddr: 0x7434, symBinAddr: 0x10000ABE8, symSize: 0x14 }
  - { offsetInCU: 0x1227E, offset: 0x1227E, size: 0x8, addend: 0x0, symName: __ZNSt3__119ostreambuf_iteratorIcNS_11char_traitsIcEEEC2B7v160006ERNS_13basic_ostreamIcS2_EE, symObjAddr: 0x7448, symBinAddr: 0x10000ABFC, symSize: 0x68 }
  - { offsetInCU: 0x122B6, offset: 0x122B6, size: 0x8, addend: 0x0, symName: __ZNKSt3__19basic_iosIcNS_11char_traitsIcEEE5rdbufB7v160006Ev, symObjAddr: 0x74B0, symBinAddr: 0x10000AC64, symSize: 0x24 }
  - { offsetInCU: 0x122DE, offset: 0x122DE, size: 0x8, addend: 0x0, symName: __ZNKSt3__18ios_base5rdbufB7v160006Ev, symObjAddr: 0x74D4, symBinAddr: 0x10000AC88, symSize: 0x18 }
  - { offsetInCU: 0x12304, offset: 0x12304, size: 0x8, addend: 0x0, symName: __ZNSt3__111char_traitsIcE11eq_int_typeEii, symObjAddr: 0x74EC, symBinAddr: 0x10000ACA0, symSize: 0x28 }
  - { offsetInCU: 0x12335, offset: 0x12335, size: 0x8, addend: 0x0, symName: __ZNSt3__111char_traitsIcE3eofEv, symObjAddr: 0x7514, symBinAddr: 0x10000ACC8, symSize: 0x8 }
  - { offsetInCU: 0x12349, offset: 0x12349, size: 0x8, addend: 0x0, symName: __ZNKSt3__19basic_iosIcNS_11char_traitsIcEEE5widenB7v160006Ec, symObjAddr: 0x751C, symBinAddr: 0x10000ACD0, symSize: 0x8C }
  - { offsetInCU: 0x123B2, offset: 0x123B2, size: 0x8, addend: 0x0, symName: __ZNKSt3__15ctypeIcE5widenB7v160006Ec, symObjAddr: 0x75D4, symBinAddr: 0x10000AD88, symSize: 0x38 }
  - { offsetInCU: 0x123E7, offset: 0x123E7, size: 0x8, addend: 0x0, symName: __ZNSt3__18ios_base8setstateB7v160006Ej, symObjAddr: 0x760C, symBinAddr: 0x10000ADC0, symSize: 0x34 }
  - { offsetInCU: 0x1241E, offset: 0x1241E, size: 0x8, addend: 0x0, symName: __ZNSt3__16vectorIP4NodeIiENS_9allocatorIS3_EEEixB7v160006Em, symObjAddr: 0x7640, symBinAddr: 0x10000ADF4, symSize: 0x24 }
  - { offsetInCU: 0x12553, offset: 0x12553, size: 0x8, addend: 0x0, symName: __ZN4ListIiEC1Ei, symObjAddr: 0x7664, symBinAddr: 0x10000AE18, symSize: 0x34 }
  - { offsetInCU: 0x1258C, offset: 0x1258C, size: 0x8, addend: 0x0, symName: __ZN7hashmapIiEC1EP4NodeIiEi, symObjAddr: 0x7698, symBinAddr: 0x10000AE4C, symSize: 0x3C }
  - { offsetInCU: 0x125D3, offset: 0x125D3, size: 0x8, addend: 0x0, symName: __ZN4ListIiEC2Ei, symObjAddr: 0x76D4, symBinAddr: 0x10000AE88, symSize: 0x84 }
  - { offsetInCU: 0x1260C, offset: 0x1260C, size: 0x8, addend: 0x0, symName: __ZN4ListIiE6insertEii, symObjAddr: 0x7758, symBinAddr: 0x10000AF0C, symSize: 0x38 }
  - { offsetInCU: 0x1264F, offset: 0x1264F, size: 0x8, addend: 0x0, symName: __ZN4ListIiE6isListEv, symObjAddr: 0x7790, symBinAddr: 0x10000AF44, symSize: 0x18 }
  - { offsetInCU: 0x12676, offset: 0x12676, size: 0x8, addend: 0x0, symName: __ZN4ListIiE7slotValEv, symObjAddr: 0x77A8, symBinAddr: 0x10000AF5C, symSize: 0x18 }
  - { offsetInCU: 0x1269D, offset: 0x1269D, size: 0x8, addend: 0x0, symName: __ZN4ListIiE4findEii, symObjAddr: 0x77C0, symBinAddr: 0x10000AF74, symSize: 0xF4 }
  - { offsetInCU: 0x126FC, offset: 0x126FC, size: 0x8, addend: 0x0, symName: __ZN7hashmapIiEC2EP4NodeIiEi, symObjAddr: 0x78B4, symBinAddr: 0x10000B068, symSize: 0x12C }
  - { offsetInCU: 0x12743, offset: 0x12743, size: 0x8, addend: 0x0, symName: __ZN7AVLNodeIiE6searchEi, symObjAddr: 0x79E0, symBinAddr: 0x10000B194, symSize: 0x140 }
  - { offsetInCU: 0x12783, offset: 0x12783, size: 0x8, addend: 0x0, symName: __ZNKSt3__16chrono15__duration_castINS0_8durationIxNS_5ratioILl1ELl1000000000EEEEES5_NS3_ILl1ELl1EEELb1ELb1EEclB7v160006ERKS5_, symObjAddr: 0x7B20, symBinAddr: 0x10000B2D4, symSize: 0x40 }
...
